ARM GAS  C:\Users\SHOZO\AppData\Local\Temp\ccwzLORX.s 			page 1


   1              		.syntax unified
   2              		.cpu cortex-m0
   3              		.fpu softvfp
   4              		.eabi_attribute 20, 1
   5              		.eabi_attribute 21, 1
   6              		.eabi_attribute 23, 3
   7              		.eabi_attribute 24, 1
   8              		.eabi_attribute 25, 1
   9              		.eabi_attribute 26, 1
  10              		.eabi_attribute 30, 6
  11              		.eabi_attribute 34, 0
  12              		.eabi_attribute 18, 4
  13              		.thumb
  14              		.syntax unified
  15              		.file	"CapSense_CSD_SMS.c"
  16              		.text
  17              	.Ltext0:
  18              		.cfi_sections	.debug_frame
  19              		.global	CapSense_CSD_prescalerTable
  20              		.section	.rodata
  21              		.align	2
  22              		.type	CapSense_CSD_prescalerTable, %object
  23              		.size	CapSense_CSD_prescalerTable, 16
  24              	CapSense_CSD_prescalerTable:
  25 0000 01       		.byte	1
  26 0001 01       		.byte	1
  27 0002 01       		.byte	1
  28 0003 02       		.byte	2
  29 0004 02       		.byte	2
  30 0005 02       		.byte	2
  31 0006 02       		.byte	2
  32 0007 04       		.byte	4
  33 0008 04       		.byte	4
  34 0009 04       		.byte	4
  35 000a 04       		.byte	4
  36 000b 04       		.byte	4
  37 000c 04       		.byte	4
  38 000d 04       		.byte	4
  39 000e 04       		.byte	4
  40 000f 04       		.byte	4
  41              		.comm	CapSense_CSD_noiseEnvelopeTbl,12,4
  42              		.comm	CapSense_CSD_runningDifferenceTbl,12,4
  43              		.comm	CapSense_CSD_signRegisterTbl,12,4
  44              		.comm	CapSense_CSD_sampleMinTbl,24,4
  45              		.comm	CapSense_CSD_sampleMaxTbl,24,4
  46              		.comm	CapSense_CSD_previousSampleTbl,24,4
  47              		.comm	CapSense_CSD_kValueTbl,12,4
  48              		.global	CapSense_CSD_sensorSensitivity
  49              		.data
  50              		.align	2
  51              		.type	CapSense_CSD_sensorSensitivity, %object
  52              		.size	CapSense_CSD_sensorSensitivity, 12
  53              	CapSense_CSD_sensorSensitivity:
  54 0000 02       		.byte	2
  55 0001 02       		.byte	2
  56 0002 02       		.byte	2
  57 0003 02       		.byte	2
ARM GAS  C:\Users\SHOZO\AppData\Local\Temp\ccwzLORX.s 			page 2


  58 0004 02       		.byte	2
  59 0005 02       		.byte	2
  60 0006 02       		.byte	2
  61 0007 02       		.byte	2
  62 0008 02       		.byte	2
  63 0009 02       		.byte	2
  64 000a 02       		.byte	2
  65 000b 02       		.byte	2
  66              		.comm	CapSense_CSD_config,12,4
  67              		.global	CapSense_CSD_configPointers
  68              		.section	.rodata
  69              		.align	2
  70              		.type	CapSense_CSD_configPointers, %object
  71              		.size	CapSense_CSD_configPointers, 92
  72              	CapSense_CSD_configPointers:
  73 0010 00000000 		.word	CapSense_CSD_modulationIDAC
  74 0014 00000000 		.word	CapSense_CSD_compensationIDAC
  75 0018 00000000 		.word	CapSense_CSD_sensorSensitivity
  76 001c 00000000 		.word	CapSense_CSD_senseClkDividerVal
  77 0020 00000000 		.word	CapSense_CSD_sampleClkDividerVal
  78 0024 00000000 		.word	CapSense_CSD_widgetNumber
  79 0028 00000000 		.word	CapSense_CSD_widgetResolution
  80 002c 00000000 		.word	CapSense_CSD_noiseEnvelopeTbl
  81 0030 00000000 		.word	CapSense_CSD_runningDifferenceTbl
  82 0034 00000000 		.word	CapSense_CSD_signRegisterTbl
  83 0038 00000000 		.word	CapSense_CSD_sampleMinTbl
  84 003c 00000000 		.word	CapSense_CSD_sampleMaxTbl
  85 0040 00000000 		.word	CapSense_CSD_previousSampleTbl
  86 0044 00000000 		.word	CapSense_CSD_kValueTbl
  87 0048 00000000 		.word	CapSense_CSD_scanSpeedTbl
  88 004c 00000000 		.word	CapSense_CSD_prescalerTable
  89 0050 00000000 		.word	CapSense_CSD_rawDataIndex
  90 0054 00000000 		.word	CapSense_CSD_numberOfSensors
  91 0058 00000000 		.word	CapSense_CSD_GetSensorRaw
  92 005c 00000000 		.word	CapSense_CSD_PreScan
  93 0060 00000000 		.word	CapSense_CSD_ReadSensorRaw
  94 0064 00000000 		.word	CapSense_CSD_GetBitValue
  95 0068 00000000 		.word	CapSense_CSD_SetBitValue
  96              		.section	.text.CapSense_CSD_AutoTune,"ax",%progbits
  97              		.align	2
  98              		.global	CapSense_CSD_AutoTune
  99              		.code	16
 100              		.thumb_func
 101              		.type	CapSense_CSD_AutoTune, %function
 102              	CapSense_CSD_AutoTune:
 103              	.LFB32:
 104              		.file 1 "Generated_Source\\PSoC4\\CapSense_CSD_SMS.c"
   1:Generated_Source\PSoC4/CapSense_CSD_SMS.c **** /*******************************************************************************
   2:Generated_Source\PSoC4/CapSense_CSD_SMS.c **** * File Name: CapSense_CSD_SMS.c
   3:Generated_Source\PSoC4/CapSense_CSD_SMS.c **** * Version 2.60
   4:Generated_Source\PSoC4/CapSense_CSD_SMS.c **** *
   5:Generated_Source\PSoC4/CapSense_CSD_SMS.c **** * Description:
   6:Generated_Source\PSoC4/CapSense_CSD_SMS.c **** *  This file provides the source code of wrapper between CapSense CSD component
   7:Generated_Source\PSoC4/CapSense_CSD_SMS.c **** *  and Auto Tuning library.
   8:Generated_Source\PSoC4/CapSense_CSD_SMS.c **** *
   9:Generated_Source\PSoC4/CapSense_CSD_SMS.c **** * Note:
  10:Generated_Source\PSoC4/CapSense_CSD_SMS.c **** *
ARM GAS  C:\Users\SHOZO\AppData\Local\Temp\ccwzLORX.s 			page 3


  11:Generated_Source\PSoC4/CapSense_CSD_SMS.c **** ********************************************************************************
  12:Generated_Source\PSoC4/CapSense_CSD_SMS.c **** * Copyright 2013-2016, Cypress Semiconductor Corporation.  All rights reserved.
  13:Generated_Source\PSoC4/CapSense_CSD_SMS.c **** * You may use this file only in accordance with the license, terms, conditions,
  14:Generated_Source\PSoC4/CapSense_CSD_SMS.c **** * disclaimers, and limitations in the end user license agreement accompanying
  15:Generated_Source\PSoC4/CapSense_CSD_SMS.c **** * the software package with which this file was provided.
  16:Generated_Source\PSoC4/CapSense_CSD_SMS.c **** *******************************************************************************/
  17:Generated_Source\PSoC4/CapSense_CSD_SMS.c **** 
  18:Generated_Source\PSoC4/CapSense_CSD_SMS.c **** #include "CapSense_CSD_SMS.h"
  19:Generated_Source\PSoC4/CapSense_CSD_SMS.c **** #include "CapSense_CSD_PVT.h"
  20:Generated_Source\PSoC4/CapSense_CSD_SMS.c **** 
  21:Generated_Source\PSoC4/CapSense_CSD_SMS.c **** #include "cytypes.h"
  22:Generated_Source\PSoC4/CapSense_CSD_SMS.c **** 
  23:Generated_Source\PSoC4/CapSense_CSD_SMS.c **** #if (CapSense_CSD_TUNING_METHOD == CapSense_CSD__TUNING_AUTO)
  24:Generated_Source\PSoC4/CapSense_CSD_SMS.c **** 
  25:Generated_Source\PSoC4/CapSense_CSD_SMS.c **** 
  26:Generated_Source\PSoC4/CapSense_CSD_SMS.c **** /*  Real Charge Divider values */
  27:Generated_Source\PSoC4/CapSense_CSD_SMS.c **** #if ((0u != CapSense_CSD_IS_M0S8PERI_BLOCK) && (0u == CY_PSOC4_4000))
  28:Generated_Source\PSoC4/CapSense_CSD_SMS.c ****     /*  Dividers are not chained */
  29:Generated_Source\PSoC4/CapSense_CSD_SMS.c ****     #if (CYDEV_BCLK__HFCLK__MHZ > 24u)
  30:Generated_Source\PSoC4/CapSense_CSD_SMS.c ****         const uint8 CapSense_CSD_prescalerTable[CapSense_CSD_PRESCALERS_TBL_SIZE] = {
  31:Generated_Source\PSoC4/CapSense_CSD_SMS.c ****             4u,     4u,     4u,    8u,    8u,    8u,    8u,    16u,    16u,    16u,    16u,    16u,
  32:Generated_Source\PSoC4/CapSense_CSD_SMS.c ****         };
  33:Generated_Source\PSoC4/CapSense_CSD_SMS.c ****     #elif (CYDEV_BCLK__HFCLK__MHZ >12u)
  34:Generated_Source\PSoC4/CapSense_CSD_SMS.c ****         const uint8 CapSense_CSD_prescalerTable[CapSense_CSD_PRESCALERS_TBL_SIZE] = {
  35:Generated_Source\PSoC4/CapSense_CSD_SMS.c ****             2u,     2u,     2u,    4u,    4u,    4u,    4u,    8u,    8u,    8u,    8u,    8u,    8
  36:Generated_Source\PSoC4/CapSense_CSD_SMS.c ****         };
  37:Generated_Source\PSoC4/CapSense_CSD_SMS.c ****     #else   /* (CYDEV_BCLK__HFCLK__MHZ > 12u) */
  38:Generated_Source\PSoC4/CapSense_CSD_SMS.c ****         const uint8 CapSense_CSD_prescalerTable[CapSense_CSD_PRESCALERS_TBL_SIZE] = {
  39:Generated_Source\PSoC4/CapSense_CSD_SMS.c ****             1u,     1u,     1u,    2u,    2u,    2u,    2u,    4u,    4u,    4u,    4u,    4u,    4
  40:Generated_Source\PSoC4/CapSense_CSD_SMS.c ****         };
  41:Generated_Source\PSoC4/CapSense_CSD_SMS.c ****     #endif /* (CYDEV_BCLK__HFCLK__MHZ > 24u) */
  42:Generated_Source\PSoC4/CapSense_CSD_SMS.c **** 
  43:Generated_Source\PSoC4/CapSense_CSD_SMS.c **** #elif (0u != CapSense_CSD_IS_M0S8PERI_BLOCK)
  44:Generated_Source\PSoC4/CapSense_CSD_SMS.c ****     /*  Dividers are not chained (PSoC 4000) */
  45:Generated_Source\PSoC4/CapSense_CSD_SMS.c ****     #if (CYDEV_BCLK__HFCLK__MHZ >= 12u)
  46:Generated_Source\PSoC4/CapSense_CSD_SMS.c ****         const uint8 CapSense_CSD_prescalerTable[CapSense_CSD_PRESCALERS_TBL_SIZE] = {
  47:Generated_Source\PSoC4/CapSense_CSD_SMS.c ****             1u,     1u,     1u,    2u,    2u,    2u,    2u,    4u,    4u,    4u,    4u,    4u,    4
  48:Generated_Source\PSoC4/CapSense_CSD_SMS.c ****         };
  49:Generated_Source\PSoC4/CapSense_CSD_SMS.c **** 
  50:Generated_Source\PSoC4/CapSense_CSD_SMS.c ****     #elif (CYDEV_BCLK__HFCLK__MHZ >= 6u)
  51:Generated_Source\PSoC4/CapSense_CSD_SMS.c ****         const uint8 CapSense_CSD_prescalerTable[CapSense_CSD_PRESCALERS_TBL_SIZE] = {
  52:Generated_Source\PSoC4/CapSense_CSD_SMS.c ****             1u,     1u,     1u,    1u,    1u,    1u,    1u,    2u,    2u,    2u,    2u,    2u,    2
  53:Generated_Source\PSoC4/CapSense_CSD_SMS.c ****         };
  54:Generated_Source\PSoC4/CapSense_CSD_SMS.c ****     #else
  55:Generated_Source\PSoC4/CapSense_CSD_SMS.c ****         const uint8 CapSense_CSD_prescalerTable[CapSense_CSD_PRESCALERS_TBL_SIZE] = {
  56:Generated_Source\PSoC4/CapSense_CSD_SMS.c ****             1u,     1u,     1u,    1u,    1u,    1u,    1u,    1u,    1u,    1u,    1u,    1u,    1
  57:Generated_Source\PSoC4/CapSense_CSD_SMS.c ****         };
  58:Generated_Source\PSoC4/CapSense_CSD_SMS.c ****     #endif /* (CYDEV_BCLK__HFCLK__MHZ > 12u) */
  59:Generated_Source\PSoC4/CapSense_CSD_SMS.c **** 
  60:Generated_Source\PSoC4/CapSense_CSD_SMS.c **** #else
  61:Generated_Source\PSoC4/CapSense_CSD_SMS.c ****     /*  Dividers are chained (PSoC 4100, PSoC 4200) */
  62:Generated_Source\PSoC4/CapSense_CSD_SMS.c ****     #if (CYDEV_BCLK__HFCLK__MHZ > 24u)
  63:Generated_Source\PSoC4/CapSense_CSD_SMS.c ****         const uint8 CapSense_CSD_prescalerTable[CapSense_CSD_PRESCALERS_TBL_SIZE] = {
  64:Generated_Source\PSoC4/CapSense_CSD_SMS.c ****             2u,     2u,     2u,    4u,    4u,    4u,    4u,    8u,    8u,    8u,    8u,    8u,    8
  65:Generated_Source\PSoC4/CapSense_CSD_SMS.c ****         };
  66:Generated_Source\PSoC4/CapSense_CSD_SMS.c **** 
  67:Generated_Source\PSoC4/CapSense_CSD_SMS.c ****     #elif (CYDEV_BCLK__HFCLK__MHZ >12u)
ARM GAS  C:\Users\SHOZO\AppData\Local\Temp\ccwzLORX.s 			page 4


  68:Generated_Source\PSoC4/CapSense_CSD_SMS.c ****         const uint8 CapSense_CSD_prescalerTable[CapSense_CSD_PRESCALERS_TBL_SIZE] = {
  69:Generated_Source\PSoC4/CapSense_CSD_SMS.c ****             1u,     1u,     1u,    2u,    2u,    2u,    2u,    4u,    4u,    4u,    4u,    4u,    4
  70:Generated_Source\PSoC4/CapSense_CSD_SMS.c ****         };
  71:Generated_Source\PSoC4/CapSense_CSD_SMS.c ****     #else   /* (CYDEV_BCLK__HFCLK__MHZ > 12u) */
  72:Generated_Source\PSoC4/CapSense_CSD_SMS.c ****         const uint8 CapSense_CSD_prescalerTable[CapSense_CSD_PRESCALERS_TBL_SIZE] = {
  73:Generated_Source\PSoC4/CapSense_CSD_SMS.c ****             1u,     1u,     1u,    1u,    1u,    1u,    1u,    2u,    2u,    2u,    2u,    2u,    2
  74:Generated_Source\PSoC4/CapSense_CSD_SMS.c ****         };
  75:Generated_Source\PSoC4/CapSense_CSD_SMS.c ****     #endif /* (CYDEV_BCLK__HFCLK__MHZ > 24u) */
  76:Generated_Source\PSoC4/CapSense_CSD_SMS.c **** #endif /* ((0u != CapSense_CSD_IS_M0S8PERI_BLOCK) && (0u == CY_PSOC4_4000)) */
  77:Generated_Source\PSoC4/CapSense_CSD_SMS.c **** 
  78:Generated_Source\PSoC4/CapSense_CSD_SMS.c **** 
  79:Generated_Source\PSoC4/CapSense_CSD_SMS.c **** uint8 CapSense_CSD_noiseEnvelopeTbl[CapSense_CSD_TOTAL_SENSOR_COUNT];
  80:Generated_Source\PSoC4/CapSense_CSD_SMS.c **** uint8 CapSense_CSD_runningDifferenceTbl[CapSense_CSD_TOTAL_SENSOR_COUNT];
  81:Generated_Source\PSoC4/CapSense_CSD_SMS.c **** uint8 CapSense_CSD_signRegisterTbl[CapSense_CSD_TOTAL_SENSOR_COUNT];
  82:Generated_Source\PSoC4/CapSense_CSD_SMS.c **** uint16 CapSense_CSD_sampleMinTbl[CapSense_CSD_TOTAL_SENSOR_COUNT];
  83:Generated_Source\PSoC4/CapSense_CSD_SMS.c **** uint16 CapSense_CSD_sampleMaxTbl[CapSense_CSD_TOTAL_SENSOR_COUNT];
  84:Generated_Source\PSoC4/CapSense_CSD_SMS.c **** uint16 CapSense_CSD_previousSampleTbl[CapSense_CSD_TOTAL_SENSOR_COUNT];
  85:Generated_Source\PSoC4/CapSense_CSD_SMS.c **** uint8 CapSense_CSD_kValueTbl[CapSense_CSD_TOTAL_SENSOR_COUNT];
  86:Generated_Source\PSoC4/CapSense_CSD_SMS.c **** 
  87:Generated_Source\PSoC4/CapSense_CSD_SMS.c **** uint8 CapSense_CSD_sensorSensitivity[] = {
  88:Generated_Source\PSoC4/CapSense_CSD_SMS.c ****     2u, 2u, 2u, 2u, 2u, 2u, 2u, 2u, 2u, 2u, 2u, 2u, 
  89:Generated_Source\PSoC4/CapSense_CSD_SMS.c **** };
  90:Generated_Source\PSoC4/CapSense_CSD_SMS.c **** 
  91:Generated_Source\PSoC4/CapSense_CSD_SMS.c **** CapSense_CSD_CONFIG_TYPE_P4_v2_60 CapSense_CSD_config;
  92:Generated_Source\PSoC4/CapSense_CSD_SMS.c **** CapSense_CSD_CONFIG_TYPE_POINTERS_P4_v2_60 const CapSense_CSD_configPointers = {
  93:Generated_Source\PSoC4/CapSense_CSD_SMS.c ****     CapSense_CSD_modulationIDAC,
  94:Generated_Source\PSoC4/CapSense_CSD_SMS.c ****     CapSense_CSD_compensationIDAC,
  95:Generated_Source\PSoC4/CapSense_CSD_SMS.c ****     CapSense_CSD_sensorSensitivity,
  96:Generated_Source\PSoC4/CapSense_CSD_SMS.c ****     CapSense_CSD_senseClkDividerVal,
  97:Generated_Source\PSoC4/CapSense_CSD_SMS.c ****     CapSense_CSD_sampleClkDividerVal,
  98:Generated_Source\PSoC4/CapSense_CSD_SMS.c ****     CapSense_CSD_widgetNumber,
  99:Generated_Source\PSoC4/CapSense_CSD_SMS.c ****     CapSense_CSD_widgetResolution,
 100:Generated_Source\PSoC4/CapSense_CSD_SMS.c ****     CapSense_CSD_noiseEnvelopeTbl,
 101:Generated_Source\PSoC4/CapSense_CSD_SMS.c ****     CapSense_CSD_runningDifferenceTbl,
 102:Generated_Source\PSoC4/CapSense_CSD_SMS.c ****     CapSense_CSD_signRegisterTbl,
 103:Generated_Source\PSoC4/CapSense_CSD_SMS.c ****     CapSense_CSD_sampleMinTbl,
 104:Generated_Source\PSoC4/CapSense_CSD_SMS.c ****     CapSense_CSD_sampleMaxTbl,
 105:Generated_Source\PSoC4/CapSense_CSD_SMS.c ****     CapSense_CSD_previousSampleTbl,
 106:Generated_Source\PSoC4/CapSense_CSD_SMS.c ****     CapSense_CSD_kValueTbl,
 107:Generated_Source\PSoC4/CapSense_CSD_SMS.c ****     CapSense_CSD_scanSpeedTbl,
 108:Generated_Source\PSoC4/CapSense_CSD_SMS.c ****     CapSense_CSD_prescalerTable,
 109:Generated_Source\PSoC4/CapSense_CSD_SMS.c ****     (const uint8  *)CapSense_CSD_rawDataIndex,
 110:Generated_Source\PSoC4/CapSense_CSD_SMS.c ****     (const uint8  *)CapSense_CSD_numberOfSensors,
 111:Generated_Source\PSoC4/CapSense_CSD_SMS.c ****     &CapSense_CSD_GetSensorRaw,
 112:Generated_Source\PSoC4/CapSense_CSD_SMS.c ****     &CapSense_CSD_PreScan,
 113:Generated_Source\PSoC4/CapSense_CSD_SMS.c ****     &CapSense_CSD_ReadSensorRaw,
 114:Generated_Source\PSoC4/CapSense_CSD_SMS.c ****     &CapSense_CSD_GetBitValue,
 115:Generated_Source\PSoC4/CapSense_CSD_SMS.c ****     &CapSense_CSD_SetBitValue
 116:Generated_Source\PSoC4/CapSense_CSD_SMS.c **** };
 117:Generated_Source\PSoC4/CapSense_CSD_SMS.c **** 
 118:Generated_Source\PSoC4/CapSense_CSD_SMS.c **** 
 119:Generated_Source\PSoC4/CapSense_CSD_SMS.c **** /*******************************************************************************
 120:Generated_Source\PSoC4/CapSense_CSD_SMS.c **** * Function Name: CapSense_CSD_AutoTune
 121:Generated_Source\PSoC4/CapSense_CSD_SMS.c **** ********************************************************************************
 122:Generated_Source\PSoC4/CapSense_CSD_SMS.c **** *
 123:Generated_Source\PSoC4/CapSense_CSD_SMS.c **** * Summary:
 124:Generated_Source\PSoC4/CapSense_CSD_SMS.c **** *  Provides the tuning procedure for all sensors.
ARM GAS  C:\Users\SHOZO\AppData\Local\Temp\ccwzLORX.s 			page 5


 125:Generated_Source\PSoC4/CapSense_CSD_SMS.c **** *
 126:Generated_Source\PSoC4/CapSense_CSD_SMS.c **** * Parameters:
 127:Generated_Source\PSoC4/CapSense_CSD_SMS.c **** *  None
 128:Generated_Source\PSoC4/CapSense_CSD_SMS.c **** *
 129:Generated_Source\PSoC4/CapSense_CSD_SMS.c **** * Return:
 130:Generated_Source\PSoC4/CapSense_CSD_SMS.c **** *  None
 131:Generated_Source\PSoC4/CapSense_CSD_SMS.c **** *
 132:Generated_Source\PSoC4/CapSense_CSD_SMS.c **** * Global Variables:
 133:Generated_Source\PSoC4/CapSense_CSD_SMS.c **** *   CapSense_CSD_config: the structure which contains configuration parameters
 134:Generated_Source\PSoC4/CapSense_CSD_SMS.c **** *   CapSense_CSD_senseClkDividerVal[]: used to store the Analog Switch
 135:Generated_Source\PSoC4/CapSense_CSD_SMS.c **** *   dividers for each sensor.
 136:Generated_Source\PSoC4/CapSense_CSD_SMS.c **** *   CapSense_CSD_senseClkDividerVal[]: used to store the
 137:Generated_Source\PSoC4/CapSense_CSD_SMS.c **** *    Analog Switch divider for all sensors.
 138:Generated_Source\PSoC4/CapSense_CSD_SMS.c **** *   CapSense_CSD_prescalersTuningDone - used to notify the Tuner GUI that
 139:Generated_Source\PSoC4/CapSense_CSD_SMS.c **** *   the pre-scalers tuning  is done.
 140:Generated_Source\PSoC4/CapSense_CSD_SMS.c **** *
 141:Generated_Source\PSoC4/CapSense_CSD_SMS.c **** * Side Effects:
 142:Generated_Source\PSoC4/CapSense_CSD_SMS.c **** *  None
 143:Generated_Source\PSoC4/CapSense_CSD_SMS.c **** *
 144:Generated_Source\PSoC4/CapSense_CSD_SMS.c **** *******************************************************************************/
 145:Generated_Source\PSoC4/CapSense_CSD_SMS.c **** void CapSense_CSD_AutoTune(void)
 146:Generated_Source\PSoC4/CapSense_CSD_SMS.c **** {
 105              		.loc 1 146 0
 106              		.cfi_startproc
 107              		@ args = 0, pretend = 0, frame = 8
 108              		@ frame_needed = 1, uses_anonymous_args = 0
 109 0000 80B5     		push	{r7, lr}
 110              		.cfi_def_cfa_offset 8
 111              		.cfi_offset 7, -8
 112              		.cfi_offset 14, -4
 113 0002 82B0     		sub	sp, sp, #8
 114              		.cfi_def_cfa_offset 16
 115 0004 00AF     		add	r7, sp, #0
 116              		.cfi_def_cfa_register 7
 147:Generated_Source\PSoC4/CapSense_CSD_SMS.c ****     uint32 curSensor;
 148:Generated_Source\PSoC4/CapSense_CSD_SMS.c ****     uint32 widget;
 149:Generated_Source\PSoC4/CapSense_CSD_SMS.c **** 
 150:Generated_Source\PSoC4/CapSense_CSD_SMS.c ****     CapSense_CSD_config.totalScanslotsNum = CapSense_CSD_TOTAL_SCANSLOT_COUNT;
 117              		.loc 1 150 0
 118 0006 334B     		ldr	r3, .L8
 119 0008 0C22     		movs	r2, #12
 120 000a 1A70     		strb	r2, [r3]
 151:Generated_Source\PSoC4/CapSense_CSD_SMS.c ****     CapSense_CSD_config.totalWidgetsNum = CapSense_CSD_END_OF_WIDGETS_INDEX;
 121              		.loc 1 151 0
 122 000c 314B     		ldr	r3, .L8
 123 000e 0C22     		movs	r2, #12
 124 0010 5A70     		strb	r2, [r3, #1]
 152:Generated_Source\PSoC4/CapSense_CSD_SMS.c ****     CapSense_CSD_config.totalSensorsNum = CapSense_CSD_TOTAL_SENSOR_COUNT;
 125              		.loc 1 152 0
 126 0012 304B     		ldr	r3, .L8
 127 0014 0C22     		movs	r2, #12
 128 0016 9A70     		strb	r2, [r3, #2]
 153:Generated_Source\PSoC4/CapSense_CSD_SMS.c **** 
 154:Generated_Source\PSoC4/CapSense_CSD_SMS.c ****     CapSense_CSD_config.hfclkFreq_MHz = CYDEV_BCLK__HFCLK__MHZ;
 129              		.loc 1 154 0
 130 0018 2E4B     		ldr	r3, .L8
 131 001a 1822     		movs	r2, #24
ARM GAS  C:\Users\SHOZO\AppData\Local\Temp\ccwzLORX.s 			page 6


 132 001c DA80     		strh	r2, [r3, #6]
 155:Generated_Source\PSoC4/CapSense_CSD_SMS.c ****     CapSense_CSD_config.sensetivitySeed = CapSense_CSD_SENSETIVITY_FACTOR;
 133              		.loc 1 155 0
 134 001e 2D4B     		ldr	r3, .L8
 135 0020 2D4A     		ldr	r2, .L8+4
 136 0022 9A80     		strh	r2, [r3, #4]
 156:Generated_Source\PSoC4/CapSense_CSD_SMS.c **** 
 157:Generated_Source\PSoC4/CapSense_CSD_SMS.c ****     CapSense_CSD_config.pointers = &CapSense_CSD_configPointers;
 137              		.loc 1 157 0
 138 0024 2B4B     		ldr	r3, .L8
 139 0026 2D4A     		ldr	r2, .L8+8
 140 0028 9A60     		str	r2, [r3, #8]
 158:Generated_Source\PSoC4/CapSense_CSD_SMS.c **** 
 159:Generated_Source\PSoC4/CapSense_CSD_SMS.c ****     CapSense_CSD_SetAnalogSwitchesSrcDirect();
 141              		.loc 1 159 0
 142 002a FFF7FEFF 		bl	CapSense_CSD_SetAnalogSwitchesSrcDirect
 160:Generated_Source\PSoC4/CapSense_CSD_SMS.c **** 
 161:Generated_Source\PSoC4/CapSense_CSD_SMS.c ****     for(widget = 0u; widget < CapSense_CSD_config.totalWidgetsNum; widget++)
 143              		.loc 1 161 0
 144 002e 0023     		movs	r3, #0
 145 0030 3B60     		str	r3, [r7]
 146 0032 07E0     		b	.L2
 147              	.L3:
 162:Generated_Source\PSoC4/CapSense_CSD_SMS.c ****     {
 163:Generated_Source\PSoC4/CapSense_CSD_SMS.c ****         CapSense_CSD_widgetResolution[widget] = CapSense_CSD_CALIBRATION_RESOLUTION;
 148              		.loc 1 163 0 discriminator 3
 149 0034 2A4B     		ldr	r3, .L8+12
 150 0036 3A68     		ldr	r2, [r7]
 151 0038 9200     		lsls	r2, r2, #2
 152 003a 2A49     		ldr	r1, .L8+16
 153 003c D150     		str	r1, [r2, r3]
 161:Generated_Source\PSoC4/CapSense_CSD_SMS.c ****     {
 154              		.loc 1 161 0 discriminator 3
 155 003e 3B68     		ldr	r3, [r7]
 156 0040 0133     		adds	r3, r3, #1
 157 0042 3B60     		str	r3, [r7]
 158              	.L2:
 161:Generated_Source\PSoC4/CapSense_CSD_SMS.c ****     {
 159              		.loc 1 161 0 is_stmt 0 discriminator 1
 160 0044 234B     		ldr	r3, .L8
 161 0046 5B78     		ldrb	r3, [r3, #1]
 162 0048 1A00     		movs	r2, r3
 163 004a 3B68     		ldr	r3, [r7]
 164 004c 9A42     		cmp	r2, r3
 165 004e F1D8     		bhi	.L3
 164:Generated_Source\PSoC4/CapSense_CSD_SMS.c ****     }
 165:Generated_Source\PSoC4/CapSense_CSD_SMS.c **** 
 166:Generated_Source\PSoC4/CapSense_CSD_SMS.c **** 
 167:Generated_Source\PSoC4/CapSense_CSD_SMS.c ****     for(curSensor = 0u; curSensor < CapSense_CSD_TOTAL_SCANSLOT_COUNT; curSensor++)
 166              		.loc 1 167 0 is_stmt 1
 167 0050 0023     		movs	r3, #0
 168 0052 7B60     		str	r3, [r7, #4]
 169 0054 0CE0     		b	.L4
 170              	.L5:
 168:Generated_Source\PSoC4/CapSense_CSD_SMS.c ****     {
 169:Generated_Source\PSoC4/CapSense_CSD_SMS.c ****         CapSense_CSD_senseClkDividerVal[curSensor] = CapSense_CSD_CALIBRATION_ASD;
 171              		.loc 1 169 0 discriminator 3
ARM GAS  C:\Users\SHOZO\AppData\Local\Temp\ccwzLORX.s 			page 7


 172 0056 244A     		ldr	r2, .L8+20
 173 0058 7B68     		ldr	r3, [r7, #4]
 174 005a D318     		adds	r3, r2, r3
 175 005c 0422     		movs	r2, #4
 176 005e 1A70     		strb	r2, [r3]
 170:Generated_Source\PSoC4/CapSense_CSD_SMS.c ****         CapSense_CSD_sampleClkDividerVal[curSensor] = CapSense_CSD_CALIBRATION_MD;
 177              		.loc 1 170 0 discriminator 3
 178 0060 224A     		ldr	r2, .L8+24
 179 0062 7B68     		ldr	r3, [r7, #4]
 180 0064 D318     		adds	r3, r2, r3
 181 0066 0222     		movs	r2, #2
 182 0068 1A70     		strb	r2, [r3]
 167:Generated_Source\PSoC4/CapSense_CSD_SMS.c ****     {
 183              		.loc 1 167 0 discriminator 3
 184 006a 7B68     		ldr	r3, [r7, #4]
 185 006c 0133     		adds	r3, r3, #1
 186 006e 7B60     		str	r3, [r7, #4]
 187              	.L4:
 167:Generated_Source\PSoC4/CapSense_CSD_SMS.c ****     {
 188              		.loc 1 167 0 is_stmt 0 discriminator 1
 189 0070 7B68     		ldr	r3, [r7, #4]
 190 0072 0B2B     		cmp	r3, #11
 191 0074 EFD9     		bls	.L5
 171:Generated_Source\PSoC4/CapSense_CSD_SMS.c ****     }
 172:Generated_Source\PSoC4/CapSense_CSD_SMS.c **** 
 173:Generated_Source\PSoC4/CapSense_CSD_SMS.c ****     CapSense_CSD_DisableBaselineIDAC();
 192              		.loc 1 173 0 is_stmt 1
 193 0076 FFF7FEFF 		bl	CapSense_CSD_DisableBaselineIDAC
 174:Generated_Source\PSoC4/CapSense_CSD_SMS.c **** 
 175:Generated_Source\PSoC4/CapSense_CSD_SMS.c ****     CalibrateSensors_P4_v2_60(&CapSense_CSD_config, CapSense_CSD_CAL_RAW_COUNT);
 194              		.loc 1 175 0
 195 007a 1D4A     		ldr	r2, .L8+28
 196 007c 154B     		ldr	r3, .L8
 197 007e 1100     		movs	r1, r2
 198 0080 1800     		movs	r0, r3
 199 0082 FFF7FEFF 		bl	CalibrateSensors_P4_v2_60
 176:Generated_Source\PSoC4/CapSense_CSD_SMS.c **** 
 177:Generated_Source\PSoC4/CapSense_CSD_SMS.c ****     #if(0u != CapSense_CSD_TOTAL_CENTROIDS_COUNT)
 178:Generated_Source\PSoC4/CapSense_CSD_SMS.c ****         CapSense_CSD_NormalizeWidgets(CapSense_CSD_END_OF_WIDGETS_INDEX, CapSense_CSD_modulationIDA
 179:Generated_Source\PSoC4/CapSense_CSD_SMS.c ****     #endif /* (0u != CapSense_CSD_TOTAL_CENTROIDS_COUNT)  */
 180:Generated_Source\PSoC4/CapSense_CSD_SMS.c **** 
 181:Generated_Source\PSoC4/CapSense_CSD_SMS.c ****     TunePrescalers_P4_v2_60(&CapSense_CSD_config);
 200              		.loc 1 181 0
 201 0086 134B     		ldr	r3, .L8
 202 0088 1800     		movs	r0, r3
 203 008a FFF7FEFF 		bl	TunePrescalers_P4_v2_60
 182:Generated_Source\PSoC4/CapSense_CSD_SMS.c **** 
 183:Generated_Source\PSoC4/CapSense_CSD_SMS.c ****     #if(CapSense_CSD_PRS_OPTIONS != CapSense_CSD__PRS_NONE)
 184:Generated_Source\PSoC4/CapSense_CSD_SMS.c ****         CapSense_CSD_prescalersTuningDone = 1u;
 204              		.loc 1 184 0
 205 008e 194B     		ldr	r3, .L8+32
 206 0090 0122     		movs	r2, #1
 207 0092 1A70     		strb	r2, [r3]
 185:Generated_Source\PSoC4/CapSense_CSD_SMS.c ****     #endif /* (CapSense_CSD_PRS_OPTIONS == CapSense_CSD__PRS_NONE) */
 186:Generated_Source\PSoC4/CapSense_CSD_SMS.c **** 
 187:Generated_Source\PSoC4/CapSense_CSD_SMS.c ****     CalibrateSensors_P4_v2_60(&CapSense_CSD_config, CapSense_CSD_CAL_RAW_COUNT);
 208              		.loc 1 187 0
ARM GAS  C:\Users\SHOZO\AppData\Local\Temp\ccwzLORX.s 			page 8


 209 0094 164A     		ldr	r2, .L8+28
 210 0096 0F4B     		ldr	r3, .L8
 211 0098 1100     		movs	r1, r2
 212 009a 1800     		movs	r0, r3
 213 009c FFF7FEFF 		bl	CalibrateSensors_P4_v2_60
 188:Generated_Source\PSoC4/CapSense_CSD_SMS.c ****     #if(0u != CapSense_CSD_TOTAL_CENTROIDS_COUNT)
 189:Generated_Source\PSoC4/CapSense_CSD_SMS.c ****         CapSense_CSD_NormalizeWidgets(CapSense_CSD_END_OF_WIDGETS_INDEX, CapSense_CSD_modulationIDA
 190:Generated_Source\PSoC4/CapSense_CSD_SMS.c ****     #endif /* (0u != CapSense_CSD_TOTAL_CENTROIDS_COUNT)  */
 191:Generated_Source\PSoC4/CapSense_CSD_SMS.c ****     TuneSensitivity_P4_v2_60(&CapSense_CSD_config);
 214              		.loc 1 191 0
 215 00a0 0C4B     		ldr	r3, .L8
 216 00a2 1800     		movs	r0, r3
 217 00a4 FFF7FEFF 		bl	TuneSensitivity_P4_v2_60
 192:Generated_Source\PSoC4/CapSense_CSD_SMS.c **** 
 193:Generated_Source\PSoC4/CapSense_CSD_SMS.c ****     CapSense_CSD_EnableBaselineIDAC(&CapSense_CSD_config);
 218              		.loc 1 193 0
 219 00a8 0A4B     		ldr	r3, .L8
 220 00aa 1800     		movs	r0, r3
 221 00ac FFF7FEFF 		bl	CapSense_CSD_EnableBaselineIDAC
 194:Generated_Source\PSoC4/CapSense_CSD_SMS.c **** 
 195:Generated_Source\PSoC4/CapSense_CSD_SMS.c ****     for(curSensor = 0u; curSensor < CapSense_CSD_TOTAL_SCANSLOT_COUNT; curSensor++)
 222              		.loc 1 195 0
 223 00b0 0023     		movs	r3, #0
 224 00b2 7B60     		str	r3, [r7, #4]
 225 00b4 06E0     		b	.L6
 226              	.L7:
 196:Generated_Source\PSoC4/CapSense_CSD_SMS.c ****     {
 197:Generated_Source\PSoC4/CapSense_CSD_SMS.c ****         CapSense_CSD_UpdateThresholds(curSensor);
 227              		.loc 1 197 0 discriminator 3
 228 00b6 7B68     		ldr	r3, [r7, #4]
 229 00b8 1800     		movs	r0, r3
 230 00ba FFF7FEFF 		bl	CapSense_CSD_UpdateThresholds
 195:Generated_Source\PSoC4/CapSense_CSD_SMS.c ****     {
 231              		.loc 1 195 0 discriminator 3
 232 00be 7B68     		ldr	r3, [r7, #4]
 233 00c0 0133     		adds	r3, r3, #1
 234 00c2 7B60     		str	r3, [r7, #4]
 235              	.L6:
 195:Generated_Source\PSoC4/CapSense_CSD_SMS.c ****     {
 236              		.loc 1 195 0 is_stmt 0 discriminator 1
 237 00c4 7B68     		ldr	r3, [r7, #4]
 238 00c6 0B2B     		cmp	r3, #11
 239 00c8 F5D9     		bls	.L7
 198:Generated_Source\PSoC4/CapSense_CSD_SMS.c ****     }
 199:Generated_Source\PSoC4/CapSense_CSD_SMS.c **** }
 240              		.loc 1 199 0 is_stmt 1
 241 00ca C046     		nop
 242 00cc BD46     		mov	sp, r7
 243 00ce 02B0     		add	sp, sp, #8
 244              		@ sp needed
 245 00d0 80BD     		pop	{r7, pc}
 246              	.L9:
 247 00d2 C046     		.align	2
 248              	.L8:
 249 00d4 00000000 		.word	CapSense_CSD_config
 250 00d8 66020000 		.word	614
 251 00dc 00000000 		.word	CapSense_CSD_configPointers
ARM GAS  C:\Users\SHOZO\AppData\Local\Temp\ccwzLORX.s 			page 9


 252 00e0 00000000 		.word	CapSense_CSD_widgetResolution
 253 00e4 0000FF0F 		.word	268369920
 254 00e8 00000000 		.word	CapSense_CSD_senseClkDividerVal
 255 00ec 00000000 		.word	CapSense_CSD_sampleClkDividerVal
 256 00f0 9A0D0000 		.word	3482
 257 00f4 00000000 		.word	CapSense_CSD_prescalersTuningDone
 258              		.cfi_endproc
 259              	.LFE32:
 260              		.size	CapSense_CSD_AutoTune, .-CapSense_CSD_AutoTune
 261              		.section	.text.CapSense_CSD_UpdateThresholds,"ax",%progbits
 262              		.align	2
 263              		.global	CapSense_CSD_UpdateThresholds
 264              		.code	16
 265              		.thumb_func
 266              		.type	CapSense_CSD_UpdateThresholds, %function
 267              	CapSense_CSD_UpdateThresholds:
 268              	.LFB33:
 200:Generated_Source\PSoC4/CapSense_CSD_SMS.c **** 
 201:Generated_Source\PSoC4/CapSense_CSD_SMS.c **** 
 202:Generated_Source\PSoC4/CapSense_CSD_SMS.c **** /*******************************************************************************
 203:Generated_Source\PSoC4/CapSense_CSD_SMS.c **** * Function Name: CapSense_CSD_UpdateThresholds
 204:Generated_Source\PSoC4/CapSense_CSD_SMS.c **** ********************************************************************************
 205:Generated_Source\PSoC4/CapSense_CSD_SMS.c **** *
 206:Generated_Source\PSoC4/CapSense_CSD_SMS.c **** * Summary:
 207:Generated_Source\PSoC4/CapSense_CSD_SMS.c **** *  The API updates the Finger Threshold, Hysteresis, Noise Threshold, and
 208:Generated_Source\PSoC4/CapSense_CSD_SMS.c **** *  Negative Noise Threshold in the AutoTuning (Smartsense) Mode.
 209:Generated_Source\PSoC4/CapSense_CSD_SMS.c **** *
 210:Generated_Source\PSoC4/CapSense_CSD_SMS.c **** * Parameters:
 211:Generated_Source\PSoC4/CapSense_CSD_SMS.c **** *  sensor: sensor number.
 212:Generated_Source\PSoC4/CapSense_CSD_SMS.c **** *
 213:Generated_Source\PSoC4/CapSense_CSD_SMS.c **** * Return:
 214:Generated_Source\PSoC4/CapSense_CSD_SMS.c **** *  None
 215:Generated_Source\PSoC4/CapSense_CSD_SMS.c **** *
 216:Generated_Source\PSoC4/CapSense_CSD_SMS.c **** * Global Variables:
 217:Generated_Source\PSoC4/CapSense_CSD_SMS.c **** *  CapSense_CSD_widgetNumber[] - contains widget Number for given sensor.
 218:Generated_Source\PSoC4/CapSense_CSD_SMS.c **** *  0 through 7 (sensor 0 is bit 0, sensor 1 is bit 1).
 219:Generated_Source\PSoC4/CapSense_CSD_SMS.c **** *  For other sensors the array element equals to 255.
 220:Generated_Source\PSoC4/CapSense_CSD_SMS.c **** *  CapSense_CSD_numberOfSensors[widget] - Number of sensors in the widget.
 221:Generated_Source\PSoC4/CapSense_CSD_SMS.c **** *   CapSense_CSD_fingerThreshold[] - contains the level of signal for each sensor
 222:Generated_Source\PSoC4/CapSense_CSD_SMS.c **** *   that determines if a finger present on the sensor.
 223:Generated_Source\PSoC4/CapSense_CSD_SMS.c **** *   CapSense_CSD_negativeNoiseThreshold[] - negative Noise Threshold
 224:Generated_Source\PSoC4/CapSense_CSD_SMS.c **** *   CapSense_CSD_hysteresis[] - the array with hysteresis values.
 225:Generated_Source\PSoC4/CapSense_CSD_SMS.c **** *
 226:Generated_Source\PSoC4/CapSense_CSD_SMS.c **** * Side Effects:
 227:Generated_Source\PSoC4/CapSense_CSD_SMS.c **** *  None
 228:Generated_Source\PSoC4/CapSense_CSD_SMS.c **** *
 229:Generated_Source\PSoC4/CapSense_CSD_SMS.c **** *******************************************************************************/
 230:Generated_Source\PSoC4/CapSense_CSD_SMS.c **** void CapSense_CSD_UpdateThresholds(uint32 sensor)
 231:Generated_Source\PSoC4/CapSense_CSD_SMS.c **** {
 269              		.loc 1 231 0
 270              		.cfi_startproc
 271              		@ args = 0, pretend = 0, frame = 16
 272              		@ frame_needed = 1, uses_anonymous_args = 0
 273 0000 90B5     		push	{r4, r7, lr}
 274              		.cfi_def_cfa_offset 12
 275              		.cfi_offset 4, -12
 276              		.cfi_offset 7, -8
ARM GAS  C:\Users\SHOZO\AppData\Local\Temp\ccwzLORX.s 			page 10


 277              		.cfi_offset 14, -4
 278 0002 87B0     		sub	sp, sp, #28
 279              		.cfi_def_cfa_offset 40
 280 0004 02AF     		add	r7, sp, #8
 281              		.cfi_def_cfa 7, 32
 282 0006 7860     		str	r0, [r7, #4]
 232:Generated_Source\PSoC4/CapSense_CSD_SMS.c ****     uint8 fingerThreshold;
 233:Generated_Source\PSoC4/CapSense_CSD_SMS.c ****     uint32 widget;
 234:Generated_Source\PSoC4/CapSense_CSD_SMS.c **** 
 235:Generated_Source\PSoC4/CapSense_CSD_SMS.c ****     widget = CapSense_CSD_widgetNumber[sensor];
 283              		.loc 1 235 0
 284 0008 344A     		ldr	r2, .L17
 285 000a 7B68     		ldr	r3, [r7, #4]
 286 000c D318     		adds	r3, r2, r3
 287 000e 1B78     		ldrb	r3, [r3]
 288 0010 FB60     		str	r3, [r7, #12]
 236:Generated_Source\PSoC4/CapSense_CSD_SMS.c **** 
 237:Generated_Source\PSoC4/CapSense_CSD_SMS.c ****     #if(0u != CapSense_CSD_FLEXIBLE_THRESHOLDS_EN)
 238:Generated_Source\PSoC4/CapSense_CSD_SMS.c ****         fingerThreshold = CapSense_CSD_fingerThreshold[widget];
 239:Generated_Source\PSoC4/CapSense_CSD_SMS.c ****         /* Update Threshold manually (flexible) */
 240:Generated_Source\PSoC4/CapSense_CSD_SMS.c ****         CapSense_CSD_noiseThreshold[widget] = (uint8)(fingerThreshold >> 1u);
 241:Generated_Source\PSoC4/CapSense_CSD_SMS.c ****         CapSense_CSD_negativeNoiseThreshold[widget] = (uint8)(fingerThreshold >> 1u);
 242:Generated_Source\PSoC4/CapSense_CSD_SMS.c ****         CapSense_CSD_hysteresis[widget] = (uint8)(fingerThreshold >> 3u);
 243:Generated_Source\PSoC4/CapSense_CSD_SMS.c ****     #else
 244:Generated_Source\PSoC4/CapSense_CSD_SMS.c ****         /* Calculate Finger Threshold and Noise Threshold with Smartsense (automatic) */
 245:Generated_Source\PSoC4/CapSense_CSD_SMS.c ****         CalculateThresholds_P4_v2_60(&CapSense_CSD_config, (uint8)sensor, (uint8)widget, CapSense_C
 289              		.loc 1 245 0
 290 0012 7B68     		ldr	r3, [r7, #4]
 291 0014 D9B2     		uxtb	r1, r3
 292 0016 FB68     		ldr	r3, [r7, #12]
 293 0018 DAB2     		uxtb	r2, r3
 294 001a 314C     		ldr	r4, .L17+4
 295 001c 3148     		ldr	r0, .L17+8
 296 001e 324B     		ldr	r3, .L17+12
 297 0020 0093     		str	r3, [sp]
 298 0022 2300     		movs	r3, r4
 299 0024 FFF7FEFF 		bl	CalculateThresholds_P4_v2_60
 246:Generated_Source\PSoC4/CapSense_CSD_SMS.c **** 
 247:Generated_Source\PSoC4/CapSense_CSD_SMS.c ****         fingerThreshold = CapSense_CSD_fingerThreshold[widget];
 300              		.loc 1 247 0
 301 0028 0B23     		movs	r3, #11
 302 002a FB18     		adds	r3, r7, r3
 303 002c 2C49     		ldr	r1, .L17+4
 304 002e FA68     		ldr	r2, [r7, #12]
 305 0030 8A18     		adds	r2, r1, r2
 306 0032 1278     		ldrb	r2, [r2]
 307 0034 1A70     		strb	r2, [r3]
 248:Generated_Source\PSoC4/CapSense_CSD_SMS.c **** 
 249:Generated_Source\PSoC4/CapSense_CSD_SMS.c ****         /* Update Threshold based on calculated with Smartsense (automatic) */
 250:Generated_Source\PSoC4/CapSense_CSD_SMS.c ****         CapSense_CSD_negativeNoiseThreshold[widget] = CapSense_CSD_noiseThreshold[widget];
 308              		.loc 1 250 0
 309 0036 2C4A     		ldr	r2, .L17+12
 310 0038 FB68     		ldr	r3, [r7, #12]
 311 003a D318     		adds	r3, r2, r3
 312 003c 1978     		ldrb	r1, [r3]
 313 003e 2B4A     		ldr	r2, .L17+16
 314 0040 FB68     		ldr	r3, [r7, #12]
ARM GAS  C:\Users\SHOZO\AppData\Local\Temp\ccwzLORX.s 			page 11


 315 0042 D318     		adds	r3, r2, r3
 316 0044 0A1C     		adds	r2, r1, #0
 317 0046 1A70     		strb	r2, [r3]
 251:Generated_Source\PSoC4/CapSense_CSD_SMS.c **** 
 252:Generated_Source\PSoC4/CapSense_CSD_SMS.c ****         if(fingerThreshold < CapSense_CSD_THRESHOLD_1)
 318              		.loc 1 252 0
 319 0048 0B23     		movs	r3, #11
 320 004a FB18     		adds	r3, r7, r3
 321 004c 1B78     		ldrb	r3, [r3]
 322 004e DB2B     		cmp	r3, #219
 323 0050 0AD8     		bhi	.L11
 253:Generated_Source\PSoC4/CapSense_CSD_SMS.c ****         {
 254:Generated_Source\PSoC4/CapSense_CSD_SMS.c ****             CapSense_CSD_hysteresis[widget] = (uint8)(fingerThreshold >> 3u);
 324              		.loc 1 254 0
 325 0052 0B23     		movs	r3, #11
 326 0054 FB18     		adds	r3, r7, r3
 327 0056 1B78     		ldrb	r3, [r3]
 328 0058 DB08     		lsrs	r3, r3, #3
 329 005a D9B2     		uxtb	r1, r3
 330 005c 244A     		ldr	r2, .L17+20
 331 005e FB68     		ldr	r3, [r7, #12]
 332 0060 D318     		adds	r3, r2, r3
 333 0062 0A1C     		adds	r2, r1, #0
 334 0064 1A70     		strb	r2, [r3]
 255:Generated_Source\PSoC4/CapSense_CSD_SMS.c ****         }
 256:Generated_Source\PSoC4/CapSense_CSD_SMS.c ****         else if(fingerThreshold <  CapSense_CSD_THRESHOLD_2)
 257:Generated_Source\PSoC4/CapSense_CSD_SMS.c ****         {
 258:Generated_Source\PSoC4/CapSense_CSD_SMS.c ****             CapSense_CSD_hysteresis[widget] = (uint8)(fingerThreshold >> 4u);
 259:Generated_Source\PSoC4/CapSense_CSD_SMS.c ****         }
 260:Generated_Source\PSoC4/CapSense_CSD_SMS.c ****         else if(fingerThreshold <  CapSense_CSD_THRESHOLD_3)
 261:Generated_Source\PSoC4/CapSense_CSD_SMS.c ****         {
 262:Generated_Source\PSoC4/CapSense_CSD_SMS.c ****             CapSense_CSD_hysteresis[widget] = (uint8)(fingerThreshold >> 5u);
 263:Generated_Source\PSoC4/CapSense_CSD_SMS.c ****         }
 264:Generated_Source\PSoC4/CapSense_CSD_SMS.c ****         else if(fingerThreshold <  CapSense_CSD_THRESHOLD_4)
 265:Generated_Source\PSoC4/CapSense_CSD_SMS.c ****         {
 266:Generated_Source\PSoC4/CapSense_CSD_SMS.c ****             CapSense_CSD_hysteresis[widget] = (uint8)(fingerThreshold >> 6u);
 267:Generated_Source\PSoC4/CapSense_CSD_SMS.c ****         }
 268:Generated_Source\PSoC4/CapSense_CSD_SMS.c ****         else
 269:Generated_Source\PSoC4/CapSense_CSD_SMS.c ****         {
 270:Generated_Source\PSoC4/CapSense_CSD_SMS.c ****             CapSense_CSD_hysteresis[widget] = 0u;
 271:Generated_Source\PSoC4/CapSense_CSD_SMS.c ****         }
 272:Generated_Source\PSoC4/CapSense_CSD_SMS.c ****     #endif /* (0u != CapSense_CSD_FLEXIBLE_THRESHOLDS_EN)  */
 273:Generated_Source\PSoC4/CapSense_CSD_SMS.c **** }
 335              		.loc 1 273 0
 336 0066 34E0     		b	.L16
 337              	.L11:
 256:Generated_Source\PSoC4/CapSense_CSD_SMS.c ****         {
 338              		.loc 1 256 0
 339 0068 0B23     		movs	r3, #11
 340 006a FB18     		adds	r3, r7, r3
 341 006c 1B78     		ldrb	r3, [r3]
 342 006e EC2B     		cmp	r3, #236
 343 0070 0AD8     		bhi	.L13
 258:Generated_Source\PSoC4/CapSense_CSD_SMS.c ****         }
 344              		.loc 1 258 0
 345 0072 0B23     		movs	r3, #11
 346 0074 FB18     		adds	r3, r7, r3
ARM GAS  C:\Users\SHOZO\AppData\Local\Temp\ccwzLORX.s 			page 12


 347 0076 1B78     		ldrb	r3, [r3]
 348 0078 1B09     		lsrs	r3, r3, #4
 349 007a D9B2     		uxtb	r1, r3
 350 007c 1C4A     		ldr	r2, .L17+20
 351 007e FB68     		ldr	r3, [r7, #12]
 352 0080 D318     		adds	r3, r2, r3
 353 0082 0A1C     		adds	r2, r1, #0
 354 0084 1A70     		strb	r2, [r3]
 355              		.loc 1 273 0
 356 0086 24E0     		b	.L16
 357              	.L13:
 260:Generated_Source\PSoC4/CapSense_CSD_SMS.c ****         {
 358              		.loc 1 260 0
 359 0088 0B23     		movs	r3, #11
 360 008a FB18     		adds	r3, r7, r3
 361 008c 1B78     		ldrb	r3, [r3]
 362 008e F42B     		cmp	r3, #244
 363 0090 0AD8     		bhi	.L14
 262:Generated_Source\PSoC4/CapSense_CSD_SMS.c ****         }
 364              		.loc 1 262 0
 365 0092 0B23     		movs	r3, #11
 366 0094 FB18     		adds	r3, r7, r3
 367 0096 1B78     		ldrb	r3, [r3]
 368 0098 5B09     		lsrs	r3, r3, #5
 369 009a D9B2     		uxtb	r1, r3
 370 009c 144A     		ldr	r2, .L17+20
 371 009e FB68     		ldr	r3, [r7, #12]
 372 00a0 D318     		adds	r3, r2, r3
 373 00a2 0A1C     		adds	r2, r1, #0
 374 00a4 1A70     		strb	r2, [r3]
 375              		.loc 1 273 0
 376 00a6 14E0     		b	.L16
 377              	.L14:
 264:Generated_Source\PSoC4/CapSense_CSD_SMS.c ****         {
 378              		.loc 1 264 0
 379 00a8 0B23     		movs	r3, #11
 380 00aa FB18     		adds	r3, r7, r3
 381 00ac 1B78     		ldrb	r3, [r3]
 382 00ae F92B     		cmp	r3, #249
 383 00b0 0AD8     		bhi	.L15
 266:Generated_Source\PSoC4/CapSense_CSD_SMS.c ****         }
 384              		.loc 1 266 0
 385 00b2 0B23     		movs	r3, #11
 386 00b4 FB18     		adds	r3, r7, r3
 387 00b6 1B78     		ldrb	r3, [r3]
 388 00b8 9B09     		lsrs	r3, r3, #6
 389 00ba D9B2     		uxtb	r1, r3
 390 00bc 0C4A     		ldr	r2, .L17+20
 391 00be FB68     		ldr	r3, [r7, #12]
 392 00c0 D318     		adds	r3, r2, r3
 393 00c2 0A1C     		adds	r2, r1, #0
 394 00c4 1A70     		strb	r2, [r3]
 395              		.loc 1 273 0
 396 00c6 04E0     		b	.L16
 397              	.L15:
 270:Generated_Source\PSoC4/CapSense_CSD_SMS.c ****         }
 398              		.loc 1 270 0
ARM GAS  C:\Users\SHOZO\AppData\Local\Temp\ccwzLORX.s 			page 13


 399 00c8 094A     		ldr	r2, .L17+20
 400 00ca FB68     		ldr	r3, [r7, #12]
 401 00cc D318     		adds	r3, r2, r3
 402 00ce 0022     		movs	r2, #0
 403 00d0 1A70     		strb	r2, [r3]
 404              	.L16:
 405              		.loc 1 273 0
 406 00d2 C046     		nop
 407 00d4 BD46     		mov	sp, r7
 408 00d6 05B0     		add	sp, sp, #20
 409              		@ sp needed
 410 00d8 90BD     		pop	{r4, r7, pc}
 411              	.L18:
 412 00da C046     		.align	2
 413              	.L17:
 414 00dc 00000000 		.word	CapSense_CSD_widgetNumber
 415 00e0 00000000 		.word	CapSense_CSD_fingerThreshold
 416 00e4 00000000 		.word	CapSense_CSD_config
 417 00e8 00000000 		.word	CapSense_CSD_noiseThreshold
 418 00ec 00000000 		.word	CapSense_CSD_negativeNoiseThreshold
 419 00f0 00000000 		.word	CapSense_CSD_hysteresis
 420              		.cfi_endproc
 421              	.LFE33:
 422              		.size	CapSense_CSD_UpdateThresholds, .-CapSense_CSD_UpdateThresholds
 423              		.section	.text.CapSense_CSD_SetAnalogSwitchesSrcDirect,"ax",%progbits
 424              		.align	2
 425              		.global	CapSense_CSD_SetAnalogSwitchesSrcDirect
 426              		.code	16
 427              		.thumb_func
 428              		.type	CapSense_CSD_SetAnalogSwitchesSrcDirect, %function
 429              	CapSense_CSD_SetAnalogSwitchesSrcDirect:
 430              	.LFB34:
 274:Generated_Source\PSoC4/CapSense_CSD_SMS.c **** 
 275:Generated_Source\PSoC4/CapSense_CSD_SMS.c **** /*******************************************************************************
 276:Generated_Source\PSoC4/CapSense_CSD_SMS.c **** * Function Name: CapSense_CSD_SetAnalogSwitchesSrcDirect
 277:Generated_Source\PSoC4/CapSense_CSD_SMS.c **** ********************************************************************************
 278:Generated_Source\PSoC4/CapSense_CSD_SMS.c **** *
 279:Generated_Source\PSoC4/CapSense_CSD_SMS.c **** * Summary:
 280:Generated_Source\PSoC4/CapSense_CSD_SMS.c **** *  This API switches the charge clock source to prescaler.
 281:Generated_Source\PSoC4/CapSense_CSD_SMS.c **** *
 282:Generated_Source\PSoC4/CapSense_CSD_SMS.c **** * Parameters:
 283:Generated_Source\PSoC4/CapSense_CSD_SMS.c **** *  None
 284:Generated_Source\PSoC4/CapSense_CSD_SMS.c **** *
 285:Generated_Source\PSoC4/CapSense_CSD_SMS.c **** * Return:
 286:Generated_Source\PSoC4/CapSense_CSD_SMS.c **** *  None
 287:Generated_Source\PSoC4/CapSense_CSD_SMS.c **** *
 288:Generated_Source\PSoC4/CapSense_CSD_SMS.c **** * Global Variables:
 289:Generated_Source\PSoC4/CapSense_CSD_SMS.c **** *  None
 290:Generated_Source\PSoC4/CapSense_CSD_SMS.c **** *
 291:Generated_Source\PSoC4/CapSense_CSD_SMS.c **** * Side Effects:
 292:Generated_Source\PSoC4/CapSense_CSD_SMS.c **** *  None
 293:Generated_Source\PSoC4/CapSense_CSD_SMS.c **** *
 294:Generated_Source\PSoC4/CapSense_CSD_SMS.c **** *******************************************************************************/
 295:Generated_Source\PSoC4/CapSense_CSD_SMS.c **** void CapSense_CSD_SetAnalogSwitchesSrcDirect(void)
 296:Generated_Source\PSoC4/CapSense_CSD_SMS.c **** {
 431              		.loc 1 296 0
 432              		.cfi_startproc
ARM GAS  C:\Users\SHOZO\AppData\Local\Temp\ccwzLORX.s 			page 14


 433              		@ args = 0, pretend = 0, frame = 0
 434              		@ frame_needed = 1, uses_anonymous_args = 0
 435 0000 80B5     		push	{r7, lr}
 436              		.cfi_def_cfa_offset 8
 437              		.cfi_offset 7, -8
 438              		.cfi_offset 14, -4
 439 0002 00AF     		add	r7, sp, #0
 440              		.cfi_def_cfa_register 7
 297:Generated_Source\PSoC4/CapSense_CSD_SMS.c ****     CapSense_CSD_CSD_CFG_REG &= ~(CapSense_CSD_CSD_CFG_PRS_SELECT);
 441              		.loc 1 297 0
 442 0004 044B     		ldr	r3, .L20
 443 0006 044A     		ldr	r2, .L20
 444 0008 1268     		ldr	r2, [r2]
 445 000a 4021     		movs	r1, #64
 446 000c 8A43     		bics	r2, r1
 447 000e 1A60     		str	r2, [r3]
 298:Generated_Source\PSoC4/CapSense_CSD_SMS.c **** }
 448              		.loc 1 298 0
 449 0010 C046     		nop
 450 0012 BD46     		mov	sp, r7
 451              		@ sp needed
 452 0014 80BD     		pop	{r7, pc}
 453              	.L21:
 454 0016 C046     		.align	2
 455              	.L20:
 456 0018 04000840 		.word	1074266116
 457              		.cfi_endproc
 458              	.LFE34:
 459              		.size	CapSense_CSD_SetAnalogSwitchesSrcDirect, .-CapSense_CSD_SetAnalogSwitchesSrcDirect
 460              		.section	.text.CapSense_CSD_DisableBaselineIDAC,"ax",%progbits
 461              		.align	2
 462              		.global	CapSense_CSD_DisableBaselineIDAC
 463              		.code	16
 464              		.thumb_func
 465              		.type	CapSense_CSD_DisableBaselineIDAC, %function
 466              	CapSense_CSD_DisableBaselineIDAC:
 467              	.LFB35:
 299:Generated_Source\PSoC4/CapSense_CSD_SMS.c **** 
 300:Generated_Source\PSoC4/CapSense_CSD_SMS.c **** 
 301:Generated_Source\PSoC4/CapSense_CSD_SMS.c **** /*******************************************************************************
 302:Generated_Source\PSoC4/CapSense_CSD_SMS.c **** * Function Name: CapSense_CSD_DisableBaselineIDAC
 303:Generated_Source\PSoC4/CapSense_CSD_SMS.c **** ********************************************************************************
 304:Generated_Source\PSoC4/CapSense_CSD_SMS.c **** *
 305:Generated_Source\PSoC4/CapSense_CSD_SMS.c **** * Summary:
 306:Generated_Source\PSoC4/CapSense_CSD_SMS.c **** *  The API disables the Compensation IDAC.
 307:Generated_Source\PSoC4/CapSense_CSD_SMS.c **** *
 308:Generated_Source\PSoC4/CapSense_CSD_SMS.c **** * Parameters:
 309:Generated_Source\PSoC4/CapSense_CSD_SMS.c **** *  None
 310:Generated_Source\PSoC4/CapSense_CSD_SMS.c **** *
 311:Generated_Source\PSoC4/CapSense_CSD_SMS.c **** * Return:
 312:Generated_Source\PSoC4/CapSense_CSD_SMS.c **** *  None
 313:Generated_Source\PSoC4/CapSense_CSD_SMS.c **** *
 314:Generated_Source\PSoC4/CapSense_CSD_SMS.c **** * Global Variables:
 315:Generated_Source\PSoC4/CapSense_CSD_SMS.c **** *  None
 316:Generated_Source\PSoC4/CapSense_CSD_SMS.c **** *
 317:Generated_Source\PSoC4/CapSense_CSD_SMS.c **** * Side Effects:
 318:Generated_Source\PSoC4/CapSense_CSD_SMS.c **** *  None
ARM GAS  C:\Users\SHOZO\AppData\Local\Temp\ccwzLORX.s 			page 15


 319:Generated_Source\PSoC4/CapSense_CSD_SMS.c **** *
 320:Generated_Source\PSoC4/CapSense_CSD_SMS.c **** *******************************************************************************/
 321:Generated_Source\PSoC4/CapSense_CSD_SMS.c **** void CapSense_CSD_DisableBaselineIDAC(void)
 322:Generated_Source\PSoC4/CapSense_CSD_SMS.c **** {
 468              		.loc 1 322 0
 469              		.cfi_startproc
 470              		@ args = 0, pretend = 0, frame = 8
 471              		@ frame_needed = 1, uses_anonymous_args = 0
 472 0000 80B5     		push	{r7, lr}
 473              		.cfi_def_cfa_offset 8
 474              		.cfi_offset 7, -8
 475              		.cfi_offset 14, -4
 476 0002 82B0     		sub	sp, sp, #8
 477              		.cfi_def_cfa_offset 16
 478 0004 00AF     		add	r7, sp, #0
 479              		.cfi_def_cfa_register 7
 323:Generated_Source\PSoC4/CapSense_CSD_SMS.c ****     uint32 newRegValue;
 324:Generated_Source\PSoC4/CapSense_CSD_SMS.c **** 
 325:Generated_Source\PSoC4/CapSense_CSD_SMS.c ****     newRegValue = CapSense_CSD_CSD_IDAC_REG;
 480              		.loc 1 325 0
 481 0006 094B     		ldr	r3, .L23
 482 0008 1B68     		ldr	r3, [r3]
 483 000a 7B60     		str	r3, [r7, #4]
 326:Generated_Source\PSoC4/CapSense_CSD_SMS.c **** 
 327:Generated_Source\PSoC4/CapSense_CSD_SMS.c ****     newRegValue &= ~(CapSense_CSD_CSD_IDAC1_MODE_MASK | CapSense_CSD_CSD_IDAC2_MODE_MASK);
 484              		.loc 1 327 0
 485 000c 7B68     		ldr	r3, [r7, #4]
 486 000e 084A     		ldr	r2, .L23+4
 487 0010 1340     		ands	r3, r2
 488 0012 7B60     		str	r3, [r7, #4]
 328:Generated_Source\PSoC4/CapSense_CSD_SMS.c ****     newRegValue |= CapSense_CSD_CSD_IDAC1_MODE_VARIABLE;
 489              		.loc 1 328 0
 490 0014 7B68     		ldr	r3, [r7, #4]
 491 0016 8022     		movs	r2, #128
 492 0018 9200     		lsls	r2, r2, #2
 493 001a 1343     		orrs	r3, r2
 494 001c 7B60     		str	r3, [r7, #4]
 329:Generated_Source\PSoC4/CapSense_CSD_SMS.c **** 
 330:Generated_Source\PSoC4/CapSense_CSD_SMS.c ****     CapSense_CSD_CSD_IDAC_REG = newRegValue;
 495              		.loc 1 330 0
 496 001e 034B     		ldr	r3, .L23
 497 0020 7A68     		ldr	r2, [r7, #4]
 498 0022 1A60     		str	r2, [r3]
 331:Generated_Source\PSoC4/CapSense_CSD_SMS.c **** }
 499              		.loc 1 331 0
 500 0024 C046     		nop
 501 0026 BD46     		mov	sp, r7
 502 0028 02B0     		add	sp, sp, #8
 503              		@ sp needed
 504 002a 80BD     		pop	{r7, pc}
 505              	.L24:
 506              		.align	2
 507              	.L23:
 508 002c 08000840 		.word	1074266120
 509 0030 FFFCFFFC 		.word	-50332417
 510              		.cfi_endproc
 511              	.LFE35:
ARM GAS  C:\Users\SHOZO\AppData\Local\Temp\ccwzLORX.s 			page 16


 512              		.size	CapSense_CSD_DisableBaselineIDAC, .-CapSense_CSD_DisableBaselineIDAC
 513              		.section	.text.CapSense_CSD_EnableBaselineIDAC,"ax",%progbits
 514              		.align	2
 515              		.global	CapSense_CSD_EnableBaselineIDAC
 516              		.code	16
 517              		.thumb_func
 518              		.type	CapSense_CSD_EnableBaselineIDAC, %function
 519              	CapSense_CSD_EnableBaselineIDAC:
 520              	.LFB36:
 332:Generated_Source\PSoC4/CapSense_CSD_SMS.c **** 
 333:Generated_Source\PSoC4/CapSense_CSD_SMS.c **** 
 334:Generated_Source\PSoC4/CapSense_CSD_SMS.c **** /*******************************************************************************
 335:Generated_Source\PSoC4/CapSense_CSD_SMS.c **** * Function Name: CapSense_CSD_EnableBaselineIDAC
 336:Generated_Source\PSoC4/CapSense_CSD_SMS.c **** ********************************************************************************
 337:Generated_Source\PSoC4/CapSense_CSD_SMS.c **** *
 338:Generated_Source\PSoC4/CapSense_CSD_SMS.c **** * Summary:
 339:Generated_Source\PSoC4/CapSense_CSD_SMS.c **** *  The API enables the Compensation IDAC.
 340:Generated_Source\PSoC4/CapSense_CSD_SMS.c **** *
 341:Generated_Source\PSoC4/CapSense_CSD_SMS.c **** * Parameters:
 342:Generated_Source\PSoC4/CapSense_CSD_SMS.c **** *  None
 343:Generated_Source\PSoC4/CapSense_CSD_SMS.c **** *
 344:Generated_Source\PSoC4/CapSense_CSD_SMS.c **** * Return:
 345:Generated_Source\PSoC4/CapSense_CSD_SMS.c **** *  None
 346:Generated_Source\PSoC4/CapSense_CSD_SMS.c **** *
 347:Generated_Source\PSoC4/CapSense_CSD_SMS.c **** * Global Variables:
 348:Generated_Source\PSoC4/CapSense_CSD_SMS.c **** *  CapSense_CSD_compensationIDAC[] - used to store a 7-bit idac value for all the sensors.
 349:Generated_Source\PSoC4/CapSense_CSD_SMS.c **** *
 350:Generated_Source\PSoC4/CapSense_CSD_SMS.c **** * Side Effects:
 351:Generated_Source\PSoC4/CapSense_CSD_SMS.c **** *  None
 352:Generated_Source\PSoC4/CapSense_CSD_SMS.c **** *
 353:Generated_Source\PSoC4/CapSense_CSD_SMS.c **** *******************************************************************************/
 354:Generated_Source\PSoC4/CapSense_CSD_SMS.c **** void  CapSense_CSD_EnableBaselineIDAC(const CapSense_CSD_CONFIG_TYPE_P4_v2_60 *config)
 355:Generated_Source\PSoC4/CapSense_CSD_SMS.c **** {
 521              		.loc 1 355 0
 522              		.cfi_startproc
 523              		@ args = 0, pretend = 0, frame = 16
 524              		@ frame_needed = 1, uses_anonymous_args = 0
 525 0000 80B5     		push	{r7, lr}
 526              		.cfi_def_cfa_offset 8
 527              		.cfi_offset 7, -8
 528              		.cfi_offset 14, -4
 529 0002 84B0     		sub	sp, sp, #16
 530              		.cfi_def_cfa_offset 24
 531 0004 00AF     		add	r7, sp, #0
 532              		.cfi_def_cfa_register 7
 533 0006 7860     		str	r0, [r7, #4]
 356:Generated_Source\PSoC4/CapSense_CSD_SMS.c ****     uint32 curSensor;
 357:Generated_Source\PSoC4/CapSense_CSD_SMS.c ****     uint32 newRegValue;
 358:Generated_Source\PSoC4/CapSense_CSD_SMS.c **** 
 359:Generated_Source\PSoC4/CapSense_CSD_SMS.c ****     for(curSensor = 0u; curSensor < config->totalScanslotsNum; curSensor++)
 534              		.loc 1 359 0
 535 0008 0023     		movs	r3, #0
 536 000a FB60     		str	r3, [r7, #12]
 537 000c 19E0     		b	.L26
 538              	.L27:
 360:Generated_Source\PSoC4/CapSense_CSD_SMS.c ****     {
 361:Generated_Source\PSoC4/CapSense_CSD_SMS.c ****         CapSense_CSD_compensationIDAC[curSensor] = CapSense_CSD_modulationIDAC[curSensor] / 2u;
ARM GAS  C:\Users\SHOZO\AppData\Local\Temp\ccwzLORX.s 			page 17


 539              		.loc 1 361 0 discriminator 3
 540 000e 1C4A     		ldr	r2, .L28
 541 0010 FB68     		ldr	r3, [r7, #12]
 542 0012 D318     		adds	r3, r2, r3
 543 0014 1B78     		ldrb	r3, [r3]
 544 0016 5B08     		lsrs	r3, r3, #1
 545 0018 D9B2     		uxtb	r1, r3
 546 001a 1A4A     		ldr	r2, .L28+4
 547 001c FB68     		ldr	r3, [r7, #12]
 548 001e D318     		adds	r3, r2, r3
 549 0020 0A1C     		adds	r2, r1, #0
 550 0022 1A70     		strb	r2, [r3]
 362:Generated_Source\PSoC4/CapSense_CSD_SMS.c ****         CapSense_CSD_modulationIDAC[curSensor] = (CapSense_CSD_modulationIDAC[curSensor] + 1u) / 2u
 551              		.loc 1 362 0 discriminator 3
 552 0024 164A     		ldr	r2, .L28
 553 0026 FB68     		ldr	r3, [r7, #12]
 554 0028 D318     		adds	r3, r2, r3
 555 002a 1B78     		ldrb	r3, [r3]
 556 002c 0133     		adds	r3, r3, #1
 557 002e 5B08     		lsrs	r3, r3, #1
 558 0030 D9B2     		uxtb	r1, r3
 559 0032 134A     		ldr	r2, .L28
 560 0034 FB68     		ldr	r3, [r7, #12]
 561 0036 D318     		adds	r3, r2, r3
 562 0038 0A1C     		adds	r2, r1, #0
 563 003a 1A70     		strb	r2, [r3]
 359:Generated_Source\PSoC4/CapSense_CSD_SMS.c ****     {
 564              		.loc 1 359 0 discriminator 3
 565 003c FB68     		ldr	r3, [r7, #12]
 566 003e 0133     		adds	r3, r3, #1
 567 0040 FB60     		str	r3, [r7, #12]
 568              	.L26:
 359:Generated_Source\PSoC4/CapSense_CSD_SMS.c ****     {
 569              		.loc 1 359 0 is_stmt 0 discriminator 1
 570 0042 7B68     		ldr	r3, [r7, #4]
 571 0044 1B78     		ldrb	r3, [r3]
 572 0046 1A00     		movs	r2, r3
 573 0048 FB68     		ldr	r3, [r7, #12]
 574 004a 9A42     		cmp	r2, r3
 575 004c DFD8     		bhi	.L27
 363:Generated_Source\PSoC4/CapSense_CSD_SMS.c ****     }
 364:Generated_Source\PSoC4/CapSense_CSD_SMS.c **** 
 365:Generated_Source\PSoC4/CapSense_CSD_SMS.c ****     CyIntDisable(CapSense_CSD_ISR_NUMBER);
 576              		.loc 1 365 0 is_stmt 1
 577 004e 0F20     		movs	r0, #15
 578 0050 FFF7FEFF 		bl	CyIntDisable
 366:Generated_Source\PSoC4/CapSense_CSD_SMS.c **** 
 367:Generated_Source\PSoC4/CapSense_CSD_SMS.c ****     newRegValue = CapSense_CSD_CSD_IDAC_REG;
 579              		.loc 1 367 0
 580 0054 0C4B     		ldr	r3, .L28+8
 581 0056 1B68     		ldr	r3, [r3]
 582 0058 BB60     		str	r3, [r7, #8]
 368:Generated_Source\PSoC4/CapSense_CSD_SMS.c ****     newRegValue &= ~(CapSense_CSD_CSD_IDAC1_MODE_MASK | CapSense_CSD_CSD_IDAC2_MODE_MASK);
 583              		.loc 1 368 0
 584 005a BB68     		ldr	r3, [r7, #8]
 585 005c 0B4A     		ldr	r2, .L28+12
 586 005e 1340     		ands	r3, r2
ARM GAS  C:\Users\SHOZO\AppData\Local\Temp\ccwzLORX.s 			page 18


 587 0060 BB60     		str	r3, [r7, #8]
 369:Generated_Source\PSoC4/CapSense_CSD_SMS.c ****     newRegValue |= (CapSense_CSD_CSD_IDAC1_MODE_VARIABLE | CapSense_CSD_CSD_IDAC2_MODE_FIXED);
 588              		.loc 1 369 0
 589 0062 BB68     		ldr	r3, [r7, #8]
 590 0064 0A4A     		ldr	r2, .L28+16
 591 0066 1343     		orrs	r3, r2
 592 0068 BB60     		str	r3, [r7, #8]
 370:Generated_Source\PSoC4/CapSense_CSD_SMS.c ****     CapSense_CSD_CSD_IDAC_REG = newRegValue;
 593              		.loc 1 370 0
 594 006a 074B     		ldr	r3, .L28+8
 595 006c BA68     		ldr	r2, [r7, #8]
 596 006e 1A60     		str	r2, [r3]
 371:Generated_Source\PSoC4/CapSense_CSD_SMS.c **** 
 372:Generated_Source\PSoC4/CapSense_CSD_SMS.c ****     CyIntEnable(CapSense_CSD_ISR_NUMBER);
 597              		.loc 1 372 0
 598 0070 0F20     		movs	r0, #15
 599 0072 FFF7FEFF 		bl	CyIntEnable
 373:Generated_Source\PSoC4/CapSense_CSD_SMS.c **** }
 600              		.loc 1 373 0
 601 0076 C046     		nop
 602 0078 BD46     		mov	sp, r7
 603 007a 04B0     		add	sp, sp, #16
 604              		@ sp needed
 605 007c 80BD     		pop	{r7, pc}
 606              	.L29:
 607 007e C046     		.align	2
 608              	.L28:
 609 0080 00000000 		.word	CapSense_CSD_modulationIDAC
 610 0084 00000000 		.word	CapSense_CSD_compensationIDAC
 611 0088 08000840 		.word	1074266120
 612 008c FFFCFFFC 		.word	-50332417
 613 0090 00020001 		.word	16777728
 614              		.cfi_endproc
 615              	.LFE36:
 616              		.size	CapSense_CSD_EnableBaselineIDAC, .-CapSense_CSD_EnableBaselineIDAC
 617              		.section	.text.CapSense_CSD_SetSensitivity,"ax",%progbits
 618              		.align	2
 619              		.global	CapSense_CSD_SetSensitivity
 620              		.code	16
 621              		.thumb_func
 622              		.type	CapSense_CSD_SetSensitivity, %function
 623              	CapSense_CSD_SetSensitivity:
 624              	.LFB37:
 374:Generated_Source\PSoC4/CapSense_CSD_SMS.c **** 
 375:Generated_Source\PSoC4/CapSense_CSD_SMS.c **** 
 376:Generated_Source\PSoC4/CapSense_CSD_SMS.c **** /*******************************************************************************
 377:Generated_Source\PSoC4/CapSense_CSD_SMS.c **** * Function Name: CapSense_CSD_SetSensitivity
 378:Generated_Source\PSoC4/CapSense_CSD_SMS.c **** ********************************************************************************
 379:Generated_Source\PSoC4/CapSense_CSD_SMS.c **** *
 380:Generated_Source\PSoC4/CapSense_CSD_SMS.c **** * Summary:
 381:Generated_Source\PSoC4/CapSense_CSD_SMS.c **** *  This API sets the sensitivity value for the sensor. The sensitivity
 382:Generated_Source\PSoC4/CapSense_CSD_SMS.c **** *  value is used during the auto-tuning algorithm executed as part of the CapSense_Start API.
 383:Generated_Source\PSoC4/CapSense_CSD_SMS.c **** *  This API is called by the application layer prior to calling the CapSense_Start API.
 384:Generated_Source\PSoC4/CapSense_CSD_SMS.c **** *  Calling this API after execution of CapSense_Start API has no effect.
 385:Generated_Source\PSoC4/CapSense_CSD_SMS.c **** *
 386:Generated_Source\PSoC4/CapSense_CSD_SMS.c **** * Parameters:
 387:Generated_Source\PSoC4/CapSense_CSD_SMS.c **** *  sensor  Sensor index
ARM GAS  C:\Users\SHOZO\AppData\Local\Temp\ccwzLORX.s 			page 19


 388:Generated_Source\PSoC4/CapSense_CSD_SMS.c **** *  data    Sensitivity of the sensor. Possible values are below
 389:Generated_Source\PSoC4/CapSense_CSD_SMS.c **** *  1 - 0.1pf sensitivity
 390:Generated_Source\PSoC4/CapSense_CSD_SMS.c **** *  2 - 0.2pf sensitivity
 391:Generated_Source\PSoC4/CapSense_CSD_SMS.c **** *  3 - 0.3pf sensitivity
 392:Generated_Source\PSoC4/CapSense_CSD_SMS.c **** *  4 - 0.4pf sensitivity
 393:Generated_Source\PSoC4/CapSense_CSD_SMS.c **** *  5 - 0.5pf sensitivity
 394:Generated_Source\PSoC4/CapSense_CSD_SMS.c **** *  6 - 0.6pf sensitivity
 395:Generated_Source\PSoC4/CapSense_CSD_SMS.c **** *  7 - 0.7pf sensitivity
 396:Generated_Source\PSoC4/CapSense_CSD_SMS.c **** *  8 - 0.8pf sensitivity
 397:Generated_Source\PSoC4/CapSense_CSD_SMS.c **** *  9 - 0.9pf sensitivity
 398:Generated_Source\PSoC4/CapSense_CSD_SMS.c **** *  10 - 1.0pf sensitivity
 399:Generated_Source\PSoC4/CapSense_CSD_SMS.c **** *  All other values, set sensitivity to 1.0pf
 400:Generated_Source\PSoC4/CapSense_CSD_SMS.c **** *
 401:Generated_Source\PSoC4/CapSense_CSD_SMS.c **** *  Return Value:
 402:Generated_Source\PSoC4/CapSense_CSD_SMS.c **** *   None
 403:Generated_Source\PSoC4/CapSense_CSD_SMS.c **** *
 404:Generated_Source\PSoC4/CapSense_CSD_SMS.c **** * Global Variables:
 405:Generated_Source\PSoC4/CapSense_CSD_SMS.c **** * CapSense_CSD_sensorSensitivity[] - This 8-bits array contains Sensitivity in the LSB nibble
 406:Generated_Source\PSoC4/CapSense_CSD_SMS.c **** *                                and Noise Reset Counter value in the MSB nibble.
 407:Generated_Source\PSoC4/CapSense_CSD_SMS.c **** *
 408:Generated_Source\PSoC4/CapSense_CSD_SMS.c **** * Side Effects:
 409:Generated_Source\PSoC4/CapSense_CSD_SMS.c **** *  None
 410:Generated_Source\PSoC4/CapSense_CSD_SMS.c **** *
 411:Generated_Source\PSoC4/CapSense_CSD_SMS.c **** *******************************************************************************/
 412:Generated_Source\PSoC4/CapSense_CSD_SMS.c **** void CapSense_CSD_SetSensitivity(uint32 sensor, uint32 value)
 413:Generated_Source\PSoC4/CapSense_CSD_SMS.c **** {
 625              		.loc 1 413 0
 626              		.cfi_startproc
 627              		@ args = 0, pretend = 0, frame = 8
 628              		@ frame_needed = 1, uses_anonymous_args = 0
 629 0000 80B5     		push	{r7, lr}
 630              		.cfi_def_cfa_offset 8
 631              		.cfi_offset 7, -8
 632              		.cfi_offset 14, -4
 633 0002 82B0     		sub	sp, sp, #8
 634              		.cfi_def_cfa_offset 16
 635 0004 00AF     		add	r7, sp, #0
 636              		.cfi_def_cfa_register 7
 637 0006 7860     		str	r0, [r7, #4]
 638 0008 3960     		str	r1, [r7]
 414:Generated_Source\PSoC4/CapSense_CSD_SMS.c ****     if(value > 10u)
 639              		.loc 1 414 0
 640 000a 3B68     		ldr	r3, [r7]
 641 000c 0A2B     		cmp	r3, #10
 642 000e 01D9     		bls	.L31
 415:Generated_Source\PSoC4/CapSense_CSD_SMS.c ****     {
 416:Generated_Source\PSoC4/CapSense_CSD_SMS.c ****         value = 10u;
 643              		.loc 1 416 0
 644 0010 0A23     		movs	r3, #10
 645 0012 3B60     		str	r3, [r7]
 646              	.L31:
 417:Generated_Source\PSoC4/CapSense_CSD_SMS.c ****     }
 418:Generated_Source\PSoC4/CapSense_CSD_SMS.c **** 
 419:Generated_Source\PSoC4/CapSense_CSD_SMS.c ****     /* Clear SensorSensitivity value in LSB nibble */
 420:Generated_Source\PSoC4/CapSense_CSD_SMS.c ****     CapSense_CSD_sensorSensitivity[sensor] &= (uint8)~CapSense_CSD_SENSITIVITY_MASK;
 647              		.loc 1 420 0
 648 0014 0F4A     		ldr	r2, .L32
ARM GAS  C:\Users\SHOZO\AppData\Local\Temp\ccwzLORX.s 			page 20


 649 0016 7B68     		ldr	r3, [r7, #4]
 650 0018 D318     		adds	r3, r2, r3
 651 001a 1B78     		ldrb	r3, [r3]
 652 001c 0F22     		movs	r2, #15
 653 001e 9343     		bics	r3, r2
 654 0020 D9B2     		uxtb	r1, r3
 655 0022 0C4A     		ldr	r2, .L32
 656 0024 7B68     		ldr	r3, [r7, #4]
 657 0026 D318     		adds	r3, r2, r3
 658 0028 0A1C     		adds	r2, r1, #0
 659 002a 1A70     		strb	r2, [r3]
 421:Generated_Source\PSoC4/CapSense_CSD_SMS.c ****     /* Set SensorSensitivity value in LSB nibble */
 422:Generated_Source\PSoC4/CapSense_CSD_SMS.c ****     CapSense_CSD_sensorSensitivity[sensor] |= (uint8)value;
 660              		.loc 1 422 0
 661 002c 094A     		ldr	r2, .L32
 662 002e 7B68     		ldr	r3, [r7, #4]
 663 0030 D318     		adds	r3, r2, r3
 664 0032 1B78     		ldrb	r3, [r3]
 665 0034 5AB2     		sxtb	r2, r3
 666 0036 3B68     		ldr	r3, [r7]
 667 0038 5BB2     		sxtb	r3, r3
 668 003a 1343     		orrs	r3, r2
 669 003c 5BB2     		sxtb	r3, r3
 670 003e D9B2     		uxtb	r1, r3
 671 0040 044A     		ldr	r2, .L32
 672 0042 7B68     		ldr	r3, [r7, #4]
 673 0044 D318     		adds	r3, r2, r3
 674 0046 0A1C     		adds	r2, r1, #0
 675 0048 1A70     		strb	r2, [r3]
 423:Generated_Source\PSoC4/CapSense_CSD_SMS.c **** }
 676              		.loc 1 423 0
 677 004a C046     		nop
 678 004c BD46     		mov	sp, r7
 679 004e 02B0     		add	sp, sp, #8
 680              		@ sp needed
 681 0050 80BD     		pop	{r7, pc}
 682              	.L33:
 683 0052 C046     		.align	2
 684              	.L32:
 685 0054 00000000 		.word	CapSense_CSD_sensorSensitivity
 686              		.cfi_endproc
 687              	.LFE37:
 688              		.size	CapSense_CSD_SetSensitivity, .-CapSense_CSD_SetSensitivity
 689              		.section	.text.CapSense_CSD_GetSensitivityCoefficient,"ax",%progbits
 690              		.align	2
 691              		.global	CapSense_CSD_GetSensitivityCoefficient
 692              		.code	16
 693              		.thumb_func
 694              		.type	CapSense_CSD_GetSensitivityCoefficient, %function
 695              	CapSense_CSD_GetSensitivityCoefficient:
 696              	.LFB38:
 424:Generated_Source\PSoC4/CapSense_CSD_SMS.c **** 
 425:Generated_Source\PSoC4/CapSense_CSD_SMS.c **** 
 426:Generated_Source\PSoC4/CapSense_CSD_SMS.c **** /*******************************************************************************
 427:Generated_Source\PSoC4/CapSense_CSD_SMS.c **** * Function Name: CapSense_CSD_GetSensitivityCoefficient
 428:Generated_Source\PSoC4/CapSense_CSD_SMS.c **** ********************************************************************************
 429:Generated_Source\PSoC4/CapSense_CSD_SMS.c **** *
ARM GAS  C:\Users\SHOZO\AppData\Local\Temp\ccwzLORX.s 			page 21


 430:Generated_Source\PSoC4/CapSense_CSD_SMS.c **** * Summary:
 431:Generated_Source\PSoC4/CapSense_CSD_SMS.c **** *  This API returns the K coefficient for the appropriate sensor.
 432:Generated_Source\PSoC4/CapSense_CSD_SMS.c **** *
 433:Generated_Source\PSoC4/CapSense_CSD_SMS.c **** * Parameters:
 434:Generated_Source\PSoC4/CapSense_CSD_SMS.c **** *  sensor:  Sensor index
 435:Generated_Source\PSoC4/CapSense_CSD_SMS.c **** *
 436:Generated_Source\PSoC4/CapSense_CSD_SMS.c **** *  Return Value:
 437:Generated_Source\PSoC4/CapSense_CSD_SMS.c **** *   K - value for the appropriate sensor.
 438:Generated_Source\PSoC4/CapSense_CSD_SMS.c **** *
 439:Generated_Source\PSoC4/CapSense_CSD_SMS.c **** * Global Variables:
 440:Generated_Source\PSoC4/CapSense_CSD_SMS.c **** *  CapSense_CSD_kValueTbl[] - This 8-bits array contains the K value for each sensor.
 441:Generated_Source\PSoC4/CapSense_CSD_SMS.c **** *
 442:Generated_Source\PSoC4/CapSense_CSD_SMS.c **** * Side Effects:
 443:Generated_Source\PSoC4/CapSense_CSD_SMS.c **** *  None
 444:Generated_Source\PSoC4/CapSense_CSD_SMS.c **** *
 445:Generated_Source\PSoC4/CapSense_CSD_SMS.c **** *******************************************************************************/
 446:Generated_Source\PSoC4/CapSense_CSD_SMS.c **** uint8 CapSense_CSD_GetSensitivityCoefficient(uint32 sensor)
 447:Generated_Source\PSoC4/CapSense_CSD_SMS.c **** {
 697              		.loc 1 447 0
 698              		.cfi_startproc
 699              		@ args = 0, pretend = 0, frame = 8
 700              		@ frame_needed = 1, uses_anonymous_args = 0
 701 0000 80B5     		push	{r7, lr}
 702              		.cfi_def_cfa_offset 8
 703              		.cfi_offset 7, -8
 704              		.cfi_offset 14, -4
 705 0002 82B0     		sub	sp, sp, #8
 706              		.cfi_def_cfa_offset 16
 707 0004 00AF     		add	r7, sp, #0
 708              		.cfi_def_cfa_register 7
 709 0006 7860     		str	r0, [r7, #4]
 448:Generated_Source\PSoC4/CapSense_CSD_SMS.c ****     return (CapSense_CSD_kValueTbl[sensor]);
 710              		.loc 1 448 0
 711 0008 034A     		ldr	r2, .L36
 712 000a 7B68     		ldr	r3, [r7, #4]
 713 000c D318     		adds	r3, r2, r3
 714 000e 1B78     		ldrb	r3, [r3]
 449:Generated_Source\PSoC4/CapSense_CSD_SMS.c **** }
 715              		.loc 1 449 0
 716 0010 1800     		movs	r0, r3
 717 0012 BD46     		mov	sp, r7
 718 0014 02B0     		add	sp, sp, #8
 719              		@ sp needed
 720 0016 80BD     		pop	{r7, pc}
 721              	.L37:
 722              		.align	2
 723              	.L36:
 724 0018 00000000 		.word	CapSense_CSD_kValueTbl
 725              		.cfi_endproc
 726              	.LFE38:
 727              		.size	CapSense_CSD_GetSensitivityCoefficient, .-CapSense_CSD_GetSensitivityCoefficient
 728              		.section	.text.CapSense_CSD_GetNoiseEnvelope,"ax",%progbits
 729              		.align	2
 730              		.global	CapSense_CSD_GetNoiseEnvelope
 731              		.code	16
 732              		.thumb_func
 733              		.type	CapSense_CSD_GetNoiseEnvelope, %function
ARM GAS  C:\Users\SHOZO\AppData\Local\Temp\ccwzLORX.s 			page 22


 734              	CapSense_CSD_GetNoiseEnvelope:
 735              	.LFB39:
 450:Generated_Source\PSoC4/CapSense_CSD_SMS.c **** 
 451:Generated_Source\PSoC4/CapSense_CSD_SMS.c **** 
 452:Generated_Source\PSoC4/CapSense_CSD_SMS.c **** /*******************************************************************************
 453:Generated_Source\PSoC4/CapSense_CSD_SMS.c **** * Function Name: CapSense_CSD_GetNoiseEnvelope
 454:Generated_Source\PSoC4/CapSense_CSD_SMS.c **** ********************************************************************************
 455:Generated_Source\PSoC4/CapSense_CSD_SMS.c **** *
 456:Generated_Source\PSoC4/CapSense_CSD_SMS.c **** * Summary:
 457:Generated_Source\PSoC4/CapSense_CSD_SMS.c **** *  This function returns the noise value of a
 458:Generated_Source\PSoC4/CapSense_CSD_SMS.c **** *  component.
 459:Generated_Source\PSoC4/CapSense_CSD_SMS.c **** *
 460:Generated_Source\PSoC4/CapSense_CSD_SMS.c **** * Parameters:
 461:Generated_Source\PSoC4/CapSense_CSD_SMS.c **** *  sensor - Sensor number.
 462:Generated_Source\PSoC4/CapSense_CSD_SMS.c **** *
 463:Generated_Source\PSoC4/CapSense_CSD_SMS.c **** * Return:
 464:Generated_Source\PSoC4/CapSense_CSD_SMS.c **** *  The noise envelope value of the sensor
 465:Generated_Source\PSoC4/CapSense_CSD_SMS.c **** *  indicated by argument.
 466:Generated_Source\PSoC4/CapSense_CSD_SMS.c **** *
 467:Generated_Source\PSoC4/CapSense_CSD_SMS.c **** * Global Variables:
 468:Generated_Source\PSoC4/CapSense_CSD_SMS.c **** *  CapSense_CSD_noiseEnvelopeTbl[] - array with Noise Envelope.
 469:Generated_Source\PSoC4/CapSense_CSD_SMS.c **** *
 470:Generated_Source\PSoC4/CapSense_CSD_SMS.c **** * Side Effects:
 471:Generated_Source\PSoC4/CapSense_CSD_SMS.c **** *  None
 472:Generated_Source\PSoC4/CapSense_CSD_SMS.c **** *
 473:Generated_Source\PSoC4/CapSense_CSD_SMS.c **** *******************************************************************************/
 474:Generated_Source\PSoC4/CapSense_CSD_SMS.c **** uint16 CapSense_CSD_GetNoiseEnvelope(uint32 sensor)
 475:Generated_Source\PSoC4/CapSense_CSD_SMS.c **** {
 736              		.loc 1 475 0
 737              		.cfi_startproc
 738              		@ args = 0, pretend = 0, frame = 8
 739              		@ frame_needed = 1, uses_anonymous_args = 0
 740 0000 80B5     		push	{r7, lr}
 741              		.cfi_def_cfa_offset 8
 742              		.cfi_offset 7, -8
 743              		.cfi_offset 14, -4
 744 0002 82B0     		sub	sp, sp, #8
 745              		.cfi_def_cfa_offset 16
 746 0004 00AF     		add	r7, sp, #0
 747              		.cfi_def_cfa_register 7
 748 0006 7860     		str	r0, [r7, #4]
 476:Generated_Source\PSoC4/CapSense_CSD_SMS.c ****     return((uint16)((uint16)CapSense_CSD_noiseEnvelopeTbl[sensor] << 1u) + 1u);
 749              		.loc 1 476 0
 750 0008 064A     		ldr	r2, .L40
 751 000a 7B68     		ldr	r3, [r7, #4]
 752 000c D318     		adds	r3, r2, r3
 753 000e 1B78     		ldrb	r3, [r3]
 754 0010 9BB2     		uxth	r3, r3
 755 0012 DB18     		adds	r3, r3, r3
 756 0014 9BB2     		uxth	r3, r3
 757 0016 0133     		adds	r3, r3, #1
 758 0018 9BB2     		uxth	r3, r3
 477:Generated_Source\PSoC4/CapSense_CSD_SMS.c **** }
 759              		.loc 1 477 0
 760 001a 1800     		movs	r0, r3
 761 001c BD46     		mov	sp, r7
 762 001e 02B0     		add	sp, sp, #8
ARM GAS  C:\Users\SHOZO\AppData\Local\Temp\ccwzLORX.s 			page 23


 763              		@ sp needed
 764 0020 80BD     		pop	{r7, pc}
 765              	.L41:
 766 0022 C046     		.align	2
 767              	.L40:
 768 0024 00000000 		.word	CapSense_CSD_noiseEnvelopeTbl
 769              		.cfi_endproc
 770              	.LFE39:
 771              		.size	CapSense_CSD_GetNoiseEnvelope, .-CapSense_CSD_GetNoiseEnvelope
 772              		.global	__aeabi_uidiv
 773              		.section	.text.CapSense_CSD_GetNormalizedDiffCountData,"ax",%progbits
 774              		.align	2
 775              		.global	CapSense_CSD_GetNormalizedDiffCountData
 776              		.code	16
 777              		.thumb_func
 778              		.type	CapSense_CSD_GetNormalizedDiffCountData, %function
 779              	CapSense_CSD_GetNormalizedDiffCountData:
 780              	.LFB40:
 478:Generated_Source\PSoC4/CapSense_CSD_SMS.c **** 
 479:Generated_Source\PSoC4/CapSense_CSD_SMS.c **** 
 480:Generated_Source\PSoC4/CapSense_CSD_SMS.c **** /*******************************************************************************
 481:Generated_Source\PSoC4/CapSense_CSD_SMS.c **** * Function Name: CapSense_CSD_GetNormalizedDiffCountData
 482:Generated_Source\PSoC4/CapSense_CSD_SMS.c **** ********************************************************************************
 483:Generated_Source\PSoC4/CapSense_CSD_SMS.c **** *
 484:Generated_Source\PSoC4/CapSense_CSD_SMS.c **** * Summary:
 485:Generated_Source\PSoC4/CapSense_CSD_SMS.c **** *  This API returns normalized difference count data.
 486:Generated_Source\PSoC4/CapSense_CSD_SMS.c **** *
 487:Generated_Source\PSoC4/CapSense_CSD_SMS.c **** * Parameters:
 488:Generated_Source\PSoC4/CapSense_CSD_SMS.c **** *  sensor:  Sensor number.
 489:Generated_Source\PSoC4/CapSense_CSD_SMS.c **** *
 490:Generated_Source\PSoC4/CapSense_CSD_SMS.c **** * Return:
 491:Generated_Source\PSoC4/CapSense_CSD_SMS.c **** *  This API returns a normalized count value of the sensor indicated by the
 492:Generated_Source\PSoC4/CapSense_CSD_SMS.c **** *  argument.
 493:Generated_Source\PSoC4/CapSense_CSD_SMS.c **** *
 494:Generated_Source\PSoC4/CapSense_CSD_SMS.c **** * Global Variables:
 495:Generated_Source\PSoC4/CapSense_CSD_SMS.c **** *  CapSense_CSD_sensorSignal[] - array with difference counts for sensors
 496:Generated_Source\PSoC4/CapSense_CSD_SMS.c **** *
 497:Generated_Source\PSoC4/CapSense_CSD_SMS.c **** * Side Effects:
 498:Generated_Source\PSoC4/CapSense_CSD_SMS.c **** *  None
 499:Generated_Source\PSoC4/CapSense_CSD_SMS.c **** *
 500:Generated_Source\PSoC4/CapSense_CSD_SMS.c **** *******************************************************************************/
 501:Generated_Source\PSoC4/CapSense_CSD_SMS.c **** uint16 CapSense_CSD_GetNormalizedDiffCountData(uint32 sensor)
 502:Generated_Source\PSoC4/CapSense_CSD_SMS.c **** {
 781              		.loc 1 502 0
 782              		.cfi_startproc
 783              		@ args = 0, pretend = 0, frame = 8
 784              		@ frame_needed = 1, uses_anonymous_args = 0
 785 0000 80B5     		push	{r7, lr}
 786              		.cfi_def_cfa_offset 8
 787              		.cfi_offset 7, -8
 788              		.cfi_offset 14, -4
 789 0002 82B0     		sub	sp, sp, #8
 790              		.cfi_def_cfa_offset 16
 791 0004 00AF     		add	r7, sp, #0
 792              		.cfi_def_cfa_register 7
 793 0006 7860     		str	r0, [r7, #4]
 503:Generated_Source\PSoC4/CapSense_CSD_SMS.c ****     return (uint16)(((uint32)CapSense_CSD_sensorSignal[sensor] << 7u) / CapSense_CSD_kValueTbl[sens
ARM GAS  C:\Users\SHOZO\AppData\Local\Temp\ccwzLORX.s 			page 24


 794              		.loc 1 503 0
 795 0008 084A     		ldr	r2, .L44
 796 000a 7B68     		ldr	r3, [r7, #4]
 797 000c D318     		adds	r3, r2, r3
 798 000e 1B78     		ldrb	r3, [r3]
 799 0010 D801     		lsls	r0, r3, #7
 800 0012 074A     		ldr	r2, .L44+4
 801 0014 7B68     		ldr	r3, [r7, #4]
 802 0016 D318     		adds	r3, r2, r3
 803 0018 1B78     		ldrb	r3, [r3]
 804 001a 1900     		movs	r1, r3
 805 001c FFF7FEFF 		bl	__aeabi_uidiv
 806 0020 0300     		movs	r3, r0
 807 0022 9BB2     		uxth	r3, r3
 504:Generated_Source\PSoC4/CapSense_CSD_SMS.c **** }
 808              		.loc 1 504 0
 809 0024 1800     		movs	r0, r3
 810 0026 BD46     		mov	sp, r7
 811 0028 02B0     		add	sp, sp, #8
 812              		@ sp needed
 813 002a 80BD     		pop	{r7, pc}
 814              	.L45:
 815              		.align	2
 816              	.L44:
 817 002c 00000000 		.word	CapSense_CSD_sensorSignal
 818 0030 00000000 		.word	CapSense_CSD_kValueTbl
 819              		.cfi_endproc
 820              	.LFE40:
 821              		.size	CapSense_CSD_GetNormalizedDiffCountData, .-CapSense_CSD_GetNormalizedDiffCountData
 822              		.text
 823              	.Letext0:
 824              		.file 2 "Generated_Source\\PSoC4\\cytypes.h"
 825              		.file 3 "Generated_Source\\PSoC4\\CapSense_CSD_PVT.h"
 826              		.file 4 "Generated_Source\\PSoC4\\CapSense_CSD.h"
 827              		.file 5 "Generated_Source\\PSoC4\\CapSense_CSD_CSHL.h"